	.file	"chacha.c"
	.text
.Ltext0:
	.file 1 "/home/unnamed/.cargo/registry/src/index.crates.io-1949cf8c6b5b557f/aws-lc-sys-0.38.0/aws-lc/crypto/chacha/chacha.c"
	.section	.text.buffers_alias,"ax",@progbits
	.type	buffers_alias, @function
buffers_alias:
.LFB63:
	.file 2 "/home/unnamed/.cargo/registry/src/index.crates.io-1949cf8c6b5b557f/aws-lc-sys-0.38.0/aws-lc/crypto/chacha/../internal.h"
	.loc 2 243 65
	.cfi_startproc
	pushq	%rbp
	.cfi_def_cfa_offset 16
	.cfi_offset 6, -16
	movq	%rsp, %rbp
	.cfi_def_cfa_register 6
	movq	%rdi, -24(%rbp)
	movq	%rsi, -32(%rbp)
	movq	%rdx, -40(%rbp)
	movq	%rcx, -48(%rbp)
	.loc 2 248 13
	movq	-24(%rbp), %rax
	movq	%rax, -8(%rbp)
	.loc 2 249 13
	movq	-40(%rbp), %rax
	movq	%rax, -16(%rbp)
	.loc 2 250 14
	movq	-8(%rbp), %rdx
	movq	-32(%rbp), %rax
	addq	%rdx, %rax
	.loc 2 250 28
	cmpq	%rax, -16(%rbp)
	jnb	.L2
	.loc 2 250 35 discriminator 1
	movq	-16(%rbp), %rdx
	movq	-48(%rbp), %rax
	addq	%rdx, %rax
	.loc 2 250 28 discriminator 1
	cmpq	%rax, -8(%rbp)
	jnb	.L2
	.loc 2 250 28 is_stmt 0 discriminator 3
	movl	$1, %eax
	.loc 2 250 28
	jmp	.L4
.L2:
	.loc 2 250 28 discriminator 4
	movl	$0, %eax
.L4:
	.loc 2 251 1 is_stmt 1
	popq	%rbp
	.cfi_def_cfa 7, 8
	ret
	.cfi_endproc
.LFE63:
	.size	buffers_alias, .-buffers_alias
	.section	.text.OPENSSL_memcpy,"ax",@progbits
	.type	OPENSSL_memcpy, @function
OPENSSL_memcpy:
.LFB94:
	.loc 2 956 74
	.cfi_startproc
	pushq	%rbp
	.cfi_def_cfa_offset 16
	.cfi_offset 6, -16
	movq	%rsp, %rbp
	.cfi_def_cfa_register 6
	subq	$32, %rsp
	movq	%rdi, -8(%rbp)
	movq	%rsi, -16(%rbp)
	movq	%rdx, -24(%rbp)
	.loc 2 957 6
	cmpq	$0, -24(%rbp)
	jne	.L6
	.loc 2 958 12
	movq	-8(%rbp), %rax
	jmp	.L7
.L6:
	.loc 2 961 10
	movq	-24(%rbp), %rdx
	movq	-16(%rbp), %rcx
	movq	-8(%rbp), %rax
	movq	%rcx, %rsi
	movq	%rax, %rdi
	call	memcpy@PLT
.L7:
	.loc 2 962 1
	leave
	.cfi_def_cfa 7, 8
	ret
	.cfi_endproc
.LFE94:
	.size	OPENSSL_memcpy, .-OPENSSL_memcpy
	.section	.text.CRYPTO_load_u32_le,"ax",@progbits
	.type	CRYPTO_load_u32_le, @function
CRYPTO_load_u32_le:
.LFB101:
	.loc 2 1021 59
	.cfi_startproc
	pushq	%rbp
	.cfi_def_cfa_offset 16
	.cfi_offset 6, -16
	movq	%rsp, %rbp
	.cfi_def_cfa_register 6
	subq	$32, %rsp
	movq	%rdi, -24(%rbp)
	.loc 2 1023 3
	movq	-24(%rbp), %rcx
	leaq	-4(%rbp), %rax
	movl	$4, %edx
	movq	%rcx, %rsi
	movq	%rax, %rdi
	call	OPENSSL_memcpy
	.loc 2 1027 10
	movl	-4(%rbp), %eax
	.loc 2 1029 1
	leave
	.cfi_def_cfa 7, 8
	ret
	.cfi_endproc
.LFE101:
	.size	CRYPTO_load_u32_le, .-CRYPTO_load_u32_le
	.section	.text.CRYPTO_rotl_u32,"ax",@progbits
	.type	CRYPTO_rotl_u32, @function
CRYPTO_rotl_u32:
.LFB112:
	.loc 2 1138 67
	.cfi_startproc
	pushq	%rbp
	.cfi_def_cfa_offset 16
	.cfi_offset 6, -16
	movq	%rsp, %rbp
	.cfi_def_cfa_register 6
	movl	%edi, -4(%rbp)
	movl	%esi, -8(%rbp)
	.loc 2 1142 27
	movl	-8(%rbp), %eax
	movl	-4(%rbp), %edx
	movl	%eax, %ecx
	roll	%cl, %edx
	movl	%edx, %eax
	.loc 2 1144 1
	popq	%rbp
	.cfi_def_cfa 7, 8
	ret
	.cfi_endproc
.LFE112:
	.size	CRYPTO_rotl_u32, .-CRYPTO_rotl_u32
	.section	.text.OPENSSL_ia32cap_get,"ax",@progbits
	.type	OPENSSL_ia32cap_get, @function
OPENSSL_ia32cap_get:
.LFB128:
	.file 3 "/home/unnamed/.cargo/registry/src/index.crates.io-1949cf8c6b5b557f/aws-lc-sys-0.38.0/aws-lc/crypto/chacha/../fipsmodule/cpucap/internal.h"
	.loc 3 48 58
	.cfi_startproc
	pushq	%rbp
	.cfi_def_cfa_offset 16
	.cfi_offset 6, -16
	movq	%rsp, %rbp
	.cfi_def_cfa_register 6
	.loc 3 49 10
	movq	aws_lc_0_38_0_OPENSSL_ia32cap_P@GOTPCREL(%rip), %rax
	.loc 3 50 1
	popq	%rbp
	.cfi_def_cfa 7, 8
	ret
	.cfi_endproc
.LFE128:
	.size	OPENSSL_ia32cap_get, .-OPENSSL_ia32cap_get
	.section	.text.CRYPTO_is_SSSE3_capable,"ax",@progbits
	.type	CRYPTO_is_SSSE3_capable, @function
CRYPTO_is_SSSE3_capable:
.LFB132:
	.loc 3 70 50
	.cfi_startproc
	pushq	%rbp
	.cfi_def_cfa_offset 16
	.cfi_offset 6, -16
	movq	%rsp, %rbp
	.cfi_def_cfa_register 6
	.loc 3 71 11
	call	OPENSSL_ia32cap_get
	.loc 3 71 32 discriminator 1
	addq	$4, %rax
	movl	(%rax), %eax
	.loc 3 71 36 discriminator 1
	andl	$512, %eax
	.loc 3 71 48 discriminator 1
	testl	%eax, %eax
	setne	%al
	movzbl	%al, %eax
	.loc 3 72 1
	popq	%rbp
	.cfi_def_cfa 7, 8
	ret
	.cfi_endproc
.LFE132:
	.size	CRYPTO_is_SSSE3_capable, .-CRYPTO_is_SSSE3_capable
	.section	.text.CRYPTO_is_MOVBE_capable,"ax",@progbits
	.type	CRYPTO_is_MOVBE_capable, @function
CRYPTO_is_MOVBE_capable:
.LFB134:
	.loc 3 78 50
	.cfi_startproc
	pushq	%rbp
	.cfi_def_cfa_offset 16
	.cfi_offset 6, -16
	movq	%rsp, %rbp
	.cfi_def_cfa_register 6
	.loc 3 79 11
	call	OPENSSL_ia32cap_get
	.loc 3 79 32 discriminator 1
	addq	$4, %rax
	movl	(%rax), %eax
	.loc 3 79 36 discriminator 1
	andl	$4194304, %eax
	.loc 3 79 49 discriminator 1
	testl	%eax, %eax
	setne	%al
	movzbl	%al, %eax
	.loc 3 80 1
	popq	%rbp
	.cfi_def_cfa 7, 8
	ret
	.cfi_endproc
.LFE134:
	.size	CRYPTO_is_MOVBE_capable, .-CRYPTO_is_MOVBE_capable
	.section	.text.CRYPTO_is_AVX2_capable,"ax",@progbits
	.type	CRYPTO_is_AVX2_capable, @function
CRYPTO_is_AVX2_capable:
.LFB140:
	.loc 3 107 49
	.cfi_startproc
	pushq	%rbp
	.cfi_def_cfa_offset 16
	.cfi_offset 6, -16
	movq	%rsp, %rbp
	.cfi_def_cfa_register 6
	.loc 3 108 11
	call	OPENSSL_ia32cap_get
	.loc 3 108 32 discriminator 1
	addq	$8, %rax
	movl	(%rax), %eax
	.loc 3 108 36 discriminator 1
	andl	$32, %eax
	.loc 3 108 48 discriminator 1
	testl	%eax, %eax
	setne	%al
	movzbl	%al, %eax
	.loc 3 109 1
	popq	%rbp
	.cfi_def_cfa 7, 8
	ret
	.cfi_endproc
.LFE140:
	.size	CRYPTO_is_AVX2_capable, .-CRYPTO_is_AVX2_capable
	.section	.text.CRYPTO_cpu_perf_is_like_silvermont,"ax",@progbits
	.type	CRYPTO_cpu_perf_is_like_silvermont, @function
CRYPTO_cpu_perf_is_like_silvermont:
.LFB149:
	.loc 3 163 61
	.cfi_startproc
	pushq	%rbp
	.cfi_def_cfa_offset 16
	.cfi_offset 6, -16
	movq	%rsp, %rbp
	.cfi_def_cfa_register 6
	subq	$16, %rsp
	.loc 3 172 34
	call	OPENSSL_ia32cap_get
	.loc 3 172 55 discriminator 1
	addq	$4, %rax
	movl	(%rax), %eax
	.loc 3 172 59 discriminator 1
	andl	$67108864, %eax
	.loc 3 172 73 discriminator 1
	testl	%eax, %eax
	setne	%al
	.loc 3 172 7 discriminator 1
	movzbl	%al, %eax
	movl	%eax, -4(%rbp)
	.loc 3 173 35
	cmpl	$0, -4(%rbp)
	jne	.L21
	.loc 3 173 38 discriminator 1
	call	CRYPTO_is_MOVBE_capable
	.loc 3 173 35 discriminator 1
	testl	%eax, %eax
	je	.L21
	.loc 3 173 35 is_stmt 0 discriminator 3
	movl	$1, %eax
	.loc 3 173 35
	jmp	.L23
.L21:
	.loc 3 173 35 discriminator 4
	movl	$0, %eax
.L23:
	.loc 3 174 1 is_stmt 1
	leave
	.cfi_def_cfa 7, 8
	ret
	.cfi_endproc
.LFE149:
	.size	CRYPTO_cpu_perf_is_like_silvermont, .-CRYPTO_cpu_perf_is_like_silvermont
	.section	.text.ChaCha20_ctr32_avx2_capable,"ax",@progbits
	.type	ChaCha20_ctr32_avx2_capable, @function
ChaCha20_ctr32_avx2_capable:
.LFB150:
	.file 4 "/home/unnamed/.cargo/registry/src/index.crates.io-1949cf8c6b5b557f/aws-lc-sys-0.38.0/aws-lc/crypto/chacha/internal.h"
	.loc 4 61 60
	.cfi_startproc
	pushq	%rbp
	.cfi_def_cfa_offset 16
	.cfi_offset 6, -16
	movq	%rsp, %rbp
	.cfi_def_cfa_register 6
	subq	$8, %rsp
	movq	%rdi, -8(%rbp)
	.loc 4 62 20
	cmpq	$128, -8(%rbp)
	jbe	.L25
	.loc 4 62 23 discriminator 1
	call	CRYPTO_is_AVX2_capable
	.loc 4 62 20 discriminator 1
	testl	%eax, %eax
	je	.L25
	.loc 4 62 20 is_stmt 0 discriminator 3
	movl	$1, %eax
	.loc 4 62 20
	jmp	.L27
.L25:
	.loc 4 62 20 discriminator 4
	movl	$0, %eax
.L27:
	.loc 4 63 1 is_stmt 1
	leave
	.cfi_def_cfa 7, 8
	ret
	.cfi_endproc
.LFE150:
	.size	ChaCha20_ctr32_avx2_capable, .-ChaCha20_ctr32_avx2_capable
	.section	.text.ChaCha20_ctr32_ssse3_4x_capable,"ax",@progbits
	.type	ChaCha20_ctr32_ssse3_4x_capable, @function
ChaCha20_ctr32_ssse3_4x_capable:
.LFB151:
	.loc 4 68 64
	.cfi_startproc
	pushq	%rbp
	.cfi_def_cfa_offset 16
	.cfi_offset 6, -16
	movq	%rsp, %rbp
	.cfi_def_cfa_register 6
	subq	$24, %rsp
	movq	%rdi, -24(%rbp)
	.loc 4 69 27
	cmpq	$128, -24(%rbp)
	jbe	.L29
	.loc 4 69 30 discriminator 1
	call	CRYPTO_is_SSSE3_capable
	.loc 4 69 27 discriminator 1
	testl	%eax, %eax
	je	.L29
	.loc 4 69 27 is_stmt 0 discriminator 3
	movl	$1, %eax
	.loc 4 69 27
	jmp	.L30
.L29:
	.loc 4 69 27 discriminator 4
	movl	$0, %eax
.L30:
	.loc 4 69 7 is_stmt 1 discriminator 6
	movl	%eax, -4(%rbp)
	.loc 4 70 26
	cmpq	$192, -24(%rbp)
	ja	.L31
	.loc 4 70 30 discriminator 2
	call	CRYPTO_cpu_perf_is_like_silvermont
	.loc 4 70 26 discriminator 1
	testl	%eax, %eax
	jne	.L32
.L31:
	.loc 4 70 26 is_stmt 0 discriminator 3
	movl	$1, %eax
	.loc 4 70 26
	jmp	.L33
.L32:
	.loc 4 70 26 discriminator 4
	movl	$0, %eax
.L33:
	.loc 4 70 7 is_stmt 1 discriminator 6
	movl	%eax, -8(%rbp)
	.loc 4 71 18
	cmpl	$0, -4(%rbp)
	je	.L34
	.loc 4 71 18 is_stmt 0 discriminator 1
	cmpl	$0, -8(%rbp)
	je	.L34
	.loc 4 71 18 discriminator 3
	movl	$1, %eax
	.loc 4 71 18
	jmp	.L36
.L34:
	.loc 4 71 18 discriminator 4
	movl	$0, %eax
.L36:
	.loc 4 72 1 is_stmt 1
	leave
	.cfi_def_cfa 7, 8
	ret
	.cfi_endproc
.LFE151:
	.size	ChaCha20_ctr32_ssse3_4x_capable, .-ChaCha20_ctr32_ssse3_4x_capable
	.section	.text.ChaCha20_ctr32_ssse3_capable,"ax",@progbits
	.type	ChaCha20_ctr32_ssse3_capable, @function
ChaCha20_ctr32_ssse3_capable:
.LFB152:
	.loc 4 77 61
	.cfi_startproc
	pushq	%rbp
	.cfi_def_cfa_offset 16
	.cfi_offset 6, -16
	movq	%rsp, %rbp
	.cfi_def_cfa_register 6
	subq	$8, %rsp
	movq	%rdi, -8(%rbp)
	.loc 4 78 20
	cmpq	$128, -8(%rbp)
	jbe	.L38
	.loc 4 78 23 discriminator 1
	call	CRYPTO_is_SSSE3_capable
	.loc 4 78 20 discriminator 1
	testl	%eax, %eax
	je	.L38
	.loc 4 78 20 is_stmt 0 discriminator 3
	movl	$1, %eax
	.loc 4 78 20
	jmp	.L40
.L38:
	.loc 4 78 20 discriminator 4
	movl	$0, %eax
.L40:
	.loc 4 79 1 is_stmt 1
	leave
	.cfi_def_cfa 7, 8
	ret
	.cfi_endproc
.LFE152:
	.size	ChaCha20_ctr32_ssse3_capable, .-ChaCha20_ctr32_ssse3_capable
	.section	.rodata.sigma_words,"a"
	.align 16
	.type	sigma_words, @object
	.size	sigma_words, 16
sigma_words:
	.long	1634760805
	.long	857760878
	.long	2036477234
	.long	1797285236
	.section	.text.aws_lc_0_38_0_CRYPTO_hchacha20,"ax",@progbits
	.globl	aws_lc_0_38_0_CRYPTO_hchacha20
	.type	aws_lc_0_38_0_CRYPTO_hchacha20, @function
aws_lc_0_38_0_CRYPTO_hchacha20:
.LFB153:
	.loc 1 47 48
	.cfi_startproc
	pushq	%rbp
	.cfi_def_cfa_offset 16
	.cfi_offset 6, -16
	movq	%rsp, %rbp
	.cfi_def_cfa_register 6
	subq	$112, %rsp
	movq	%rdi, -88(%rbp)
	movq	%rsi, -96(%rbp)
	movq	%rdx, -104(%rbp)
	.loc 1 49 3
	leaq	-80(%rbp), %rax
	movl	$16, %edx
	leaq	sigma_words(%rip), %rcx
	movq	%rcx, %rsi
	movq	%rax, %rdi
	call	OPENSSL_memcpy
	.loc 1 58 3
	movq	-96(%rbp), %rax
	leaq	-80(%rbp), %rdx
	leaq	16(%rdx), %rcx
	movl	$32, %edx
	movq	%rax, %rsi
	movq	%rcx, %rdi
	call	OPENSSL_memcpy
	.loc 1 59 3
	movq	-104(%rbp), %rax
	leaq	-80(%rbp), %rdx
	leaq	48(%rdx), %rcx
	movl	$16, %edx
	movq	%rax, %rsi
	movq	%rcx, %rdi
	call	OPENSSL_memcpy
.LBB2:
	.loc 1 62 15
	movq	$0, -8(%rbp)
	.loc 1 62 3
	jmp	.L42
.L43:
	.loc 1 63 5
	movl	-80(%rbp), %edx
	movl	-64(%rbp), %eax
	addl	%edx, %eax
	movl	%eax, -80(%rbp)
	movl	-32(%rbp), %edx
	movl	-80(%rbp), %eax
	xorl	%edx, %eax
	movl	$16, %esi
	movl	%eax, %edi
	call	CRYPTO_rotl_u32
	.loc 1 63 5 is_stmt 0 discriminator 1
	movl	%eax, -32(%rbp)
	movl	-48(%rbp), %edx
	movl	-32(%rbp), %eax
	addl	%edx, %eax
	movl	%eax, -48(%rbp)
	movl	-64(%rbp), %edx
	movl	-48(%rbp), %eax
	xorl	%edx, %eax
	movl	$12, %esi
	movl	%eax, %edi
	call	CRYPTO_rotl_u32
	.loc 1 63 5 discriminator 2
	movl	%eax, -64(%rbp)
	movl	-80(%rbp), %edx
	movl	-64(%rbp), %eax
	addl	%edx, %eax
	movl	%eax, -80(%rbp)
	movl	-32(%rbp), %edx
	movl	-80(%rbp), %eax
	xorl	%edx, %eax
	movl	$8, %esi
	movl	%eax, %edi
	call	CRYPTO_rotl_u32
	.loc 1 63 5 discriminator 3
	movl	%eax, -32(%rbp)
	movl	-48(%rbp), %edx
	movl	-32(%rbp), %eax
	addl	%edx, %eax
	movl	%eax, -48(%rbp)
	movl	-64(%rbp), %edx
	movl	-48(%rbp), %eax
	xorl	%edx, %eax
	movl	$7, %esi
	movl	%eax, %edi
	call	CRYPTO_rotl_u32
	.loc 1 63 5 discriminator 4
	movl	%eax, -64(%rbp)
	.loc 1 64 5 is_stmt 1
	movl	-76(%rbp), %edx
	movl	-60(%rbp), %eax
	addl	%edx, %eax
	movl	%eax, -76(%rbp)
	movl	-28(%rbp), %edx
	movl	-76(%rbp), %eax
	xorl	%edx, %eax
	movl	$16, %esi
	movl	%eax, %edi
	call	CRYPTO_rotl_u32
	.loc 1 64 5 is_stmt 0 discriminator 1
	movl	%eax, -28(%rbp)
	movl	-44(%rbp), %edx
	movl	-28(%rbp), %eax
	addl	%edx, %eax
	movl	%eax, -44(%rbp)
	movl	-60(%rbp), %edx
	movl	-44(%rbp), %eax
	xorl	%edx, %eax
	movl	$12, %esi
	movl	%eax, %edi
	call	CRYPTO_rotl_u32
	.loc 1 64 5 discriminator 2
	movl	%eax, -60(%rbp)
	movl	-76(%rbp), %edx
	movl	-60(%rbp), %eax
	addl	%edx, %eax
	movl	%eax, -76(%rbp)
	movl	-28(%rbp), %edx
	movl	-76(%rbp), %eax
	xorl	%edx, %eax
	movl	$8, %esi
	movl	%eax, %edi
	call	CRYPTO_rotl_u32
	.loc 1 64 5 discriminator 3
	movl	%eax, -28(%rbp)
	movl	-44(%rbp), %edx
	movl	-28(%rbp), %eax
	addl	%edx, %eax
	movl	%eax, -44(%rbp)
	movl	-60(%rbp), %edx
	movl	-44(%rbp), %eax
	xorl	%edx, %eax
	movl	$7, %esi
	movl	%eax, %edi
	call	CRYPTO_rotl_u32
	.loc 1 64 5 discriminator 4
	movl	%eax, -60(%rbp)
	.loc 1 65 5 is_stmt 1
	movl	-72(%rbp), %edx
	movl	-56(%rbp), %eax
	addl	%edx, %eax
	movl	%eax, -72(%rbp)
	movl	-24(%rbp), %edx
	movl	-72(%rbp), %eax
	xorl	%edx, %eax
	movl	$16, %esi
	movl	%eax, %edi
	call	CRYPTO_rotl_u32
	.loc 1 65 5 is_stmt 0 discriminator 1
	movl	%eax, -24(%rbp)
	movl	-40(%rbp), %edx
	movl	-24(%rbp), %eax
	addl	%edx, %eax
	movl	%eax, -40(%rbp)
	movl	-56(%rbp), %edx
	movl	-40(%rbp), %eax
	xorl	%edx, %eax
	movl	$12, %esi
	movl	%eax, %edi
	call	CRYPTO_rotl_u32
	.loc 1 65 5 discriminator 2
	movl	%eax, -56(%rbp)
	movl	-72(%rbp), %edx
	movl	-56(%rbp), %eax
	addl	%edx, %eax
	movl	%eax, -72(%rbp)
	movl	-24(%rbp), %edx
	movl	-72(%rbp), %eax
	xorl	%edx, %eax
	movl	$8, %esi
	movl	%eax, %edi
	call	CRYPTO_rotl_u32
	.loc 1 65 5 discriminator 3
	movl	%eax, -24(%rbp)
	movl	-40(%rbp), %edx
	movl	-24(%rbp), %eax
	addl	%edx, %eax
	movl	%eax, -40(%rbp)
	movl	-56(%rbp), %edx
	movl	-40(%rbp), %eax
	xorl	%edx, %eax
	movl	$7, %esi
	movl	%eax, %edi
	call	CRYPTO_rotl_u32
	.loc 1 65 5 discriminator 4
	movl	%eax, -56(%rbp)
	.loc 1 66 5 is_stmt 1
	movl	-68(%rbp), %edx
	movl	-52(%rbp), %eax
	addl	%edx, %eax
	movl	%eax, -68(%rbp)
	movl	-20(%rbp), %edx
	movl	-68(%rbp), %eax
	xorl	%edx, %eax
	movl	$16, %esi
	movl	%eax, %edi
	call	CRYPTO_rotl_u32
	.loc 1 66 5 is_stmt 0 discriminator 1
	movl	%eax, -20(%rbp)
	movl	-36(%rbp), %edx
	movl	-20(%rbp), %eax
	addl	%edx, %eax
	movl	%eax, -36(%rbp)
	movl	-52(%rbp), %edx
	movl	-36(%rbp), %eax
	xorl	%edx, %eax
	movl	$12, %esi
	movl	%eax, %edi
	call	CRYPTO_rotl_u32
	.loc 1 66 5 discriminator 2
	movl	%eax, -52(%rbp)
	movl	-68(%rbp), %edx
	movl	-52(%rbp), %eax
	addl	%edx, %eax
	movl	%eax, -68(%rbp)
	movl	-20(%rbp), %edx
	movl	-68(%rbp), %eax
	xorl	%edx, %eax
	movl	$8, %esi
	movl	%eax, %edi
	call	CRYPTO_rotl_u32
	.loc 1 66 5 discriminator 3
	movl	%eax, -20(%rbp)
	movl	-36(%rbp), %edx
	movl	-20(%rbp), %eax
	addl	%edx, %eax
	movl	%eax, -36(%rbp)
	movl	-52(%rbp), %edx
	movl	-36(%rbp), %eax
	xorl	%edx, %eax
	movl	$7, %esi
	movl	%eax, %edi
	call	CRYPTO_rotl_u32
	.loc 1 66 5 discriminator 4
	movl	%eax, -52(%rbp)
	.loc 1 67 5 is_stmt 1
	movl	-80(%rbp), %edx
	movl	-60(%rbp), %eax
	addl	%edx, %eax
	movl	%eax, -80(%rbp)
	movl	-20(%rbp), %edx
	movl	-80(%rbp), %eax
	xorl	%edx, %eax
	movl	$16, %esi
	movl	%eax, %edi
	call	CRYPTO_rotl_u32
	.loc 1 67 5 is_stmt 0 discriminator 1
	movl	%eax, -20(%rbp)
	movl	-40(%rbp), %edx
	movl	-20(%rbp), %eax
	addl	%edx, %eax
	movl	%eax, -40(%rbp)
	movl	-60(%rbp), %edx
	movl	-40(%rbp), %eax
	xorl	%edx, %eax
	movl	$12, %esi
	movl	%eax, %edi
	call	CRYPTO_rotl_u32
	.loc 1 67 5 discriminator 2
	movl	%eax, -60(%rbp)
	movl	-80(%rbp), %edx
	movl	-60(%rbp), %eax
	addl	%edx, %eax
	movl	%eax, -80(%rbp)
	movl	-20(%rbp), %edx
	movl	-80(%rbp), %eax
	xorl	%edx, %eax
	movl	$8, %esi
	movl	%eax, %edi
	call	CRYPTO_rotl_u32
	.loc 1 67 5 discriminator 3
	movl	%eax, -20(%rbp)
	movl	-40(%rbp), %edx
	movl	-20(%rbp), %eax
	addl	%edx, %eax
	movl	%eax, -40(%rbp)
	movl	-60(%rbp), %edx
	movl	-40(%rbp), %eax
	xorl	%edx, %eax
	movl	$7, %esi
	movl	%eax, %edi
	call	CRYPTO_rotl_u32
	.loc 1 67 5 discriminator 4
	movl	%eax, -60(%rbp)
	.loc 1 68 5 is_stmt 1
	movl	-76(%rbp), %edx
	movl	-56(%rbp), %eax
	addl	%edx, %eax
	movl	%eax, -76(%rbp)
	movl	-32(%rbp), %edx
	movl	-76(%rbp), %eax
	xorl	%edx, %eax
	movl	$16, %esi
	movl	%eax, %edi
	call	CRYPTO_rotl_u32
	.loc 1 68 5 is_stmt 0 discriminator 1
	movl	%eax, -32(%rbp)
	movl	-36(%rbp), %edx
	movl	-32(%rbp), %eax
	addl	%edx, %eax
	movl	%eax, -36(%rbp)
	movl	-56(%rbp), %edx
	movl	-36(%rbp), %eax
	xorl	%edx, %eax
	movl	$12, %esi
	movl	%eax, %edi
	call	CRYPTO_rotl_u32
	.loc 1 68 5 discriminator 2
	movl	%eax, -56(%rbp)
	movl	-76(%rbp), %edx
	movl	-56(%rbp), %eax
	addl	%edx, %eax
	movl	%eax, -76(%rbp)
	movl	-32(%rbp), %edx
	movl	-76(%rbp), %eax
	xorl	%edx, %eax
	movl	$8, %esi
	movl	%eax, %edi
	call	CRYPTO_rotl_u32
	.loc 1 68 5 discriminator 3
	movl	%eax, -32(%rbp)
	movl	-36(%rbp), %edx
	movl	-32(%rbp), %eax
	addl	%edx, %eax
	movl	%eax, -36(%rbp)
	movl	-56(%rbp), %edx
	movl	-36(%rbp), %eax
	xorl	%edx, %eax
	movl	$7, %esi
	movl	%eax, %edi
	call	CRYPTO_rotl_u32
	.loc 1 68 5 discriminator 4
	movl	%eax, -56(%rbp)
	.loc 1 69 5 is_stmt 1
	movl	-72(%rbp), %edx
	movl	-52(%rbp), %eax
	addl	%edx, %eax
	movl	%eax, -72(%rbp)
	movl	-28(%rbp), %edx
	movl	-72(%rbp), %eax
	xorl	%edx, %eax
	movl	$16, %esi
	movl	%eax, %edi
	call	CRYPTO_rotl_u32
	.loc 1 69 5 is_stmt 0 discriminator 1
	movl	%eax, -28(%rbp)
	movl	-48(%rbp), %edx
	movl	-28(%rbp), %eax
	addl	%edx, %eax
	movl	%eax, -48(%rbp)
	movl	-52(%rbp), %edx
	movl	-48(%rbp), %eax
	xorl	%edx, %eax
	movl	$12, %esi
	movl	%eax, %edi
	call	CRYPTO_rotl_u32
	.loc 1 69 5 discriminator 2
	movl	%eax, -52(%rbp)
	movl	-72(%rbp), %edx
	movl	-52(%rbp), %eax
	addl	%edx, %eax
	movl	%eax, -72(%rbp)
	movl	-28(%rbp), %edx
	movl	-72(%rbp), %eax
	xorl	%edx, %eax
	movl	$8, %esi
	movl	%eax, %edi
	call	CRYPTO_rotl_u32
	.loc 1 69 5 discriminator 3
	movl	%eax, -28(%rbp)
	movl	-48(%rbp), %edx
	movl	-28(%rbp), %eax
	addl	%edx, %eax
	movl	%eax, -48(%rbp)
	movl	-52(%rbp), %edx
	movl	-48(%rbp), %eax
	xorl	%edx, %eax
	movl	$7, %esi
	movl	%eax, %edi
	call	CRYPTO_rotl_u32
	.loc 1 69 5 discriminator 4
	movl	%eax, -52(%rbp)
	.loc 1 70 5 is_stmt 1
	movl	-68(%rbp), %edx
	movl	-64(%rbp), %eax
	addl	%edx, %eax
	movl	%eax, -68(%rbp)
	movl	-24(%rbp), %edx
	movl	-68(%rbp), %eax
	xorl	%edx, %eax
	movl	$16, %esi
	movl	%eax, %edi
	call	CRYPTO_rotl_u32
	.loc 1 70 5 is_stmt 0 discriminator 1
	movl	%eax, -24(%rbp)
	movl	-44(%rbp), %edx
	movl	-24(%rbp), %eax
	addl	%edx, %eax
	movl	%eax, -44(%rbp)
	movl	-64(%rbp), %edx
	movl	-44(%rbp), %eax
	xorl	%edx, %eax
	movl	$12, %esi
	movl	%eax, %edi
	call	CRYPTO_rotl_u32
	.loc 1 70 5 discriminator 2
	movl	%eax, -64(%rbp)
	movl	-68(%rbp), %edx
	movl	-64(%rbp), %eax
	addl	%edx, %eax
	movl	%eax, -68(%rbp)
	movl	-24(%rbp), %edx
	movl	-68(%rbp), %eax
	xorl	%edx, %eax
	movl	$8, %esi
	movl	%eax, %edi
	call	CRYPTO_rotl_u32
	.loc 1 70 5 discriminator 3
	movl	%eax, -24(%rbp)
	movl	-44(%rbp), %edx
	movl	-24(%rbp), %eax
	addl	%edx, %eax
	movl	%eax, -44(%rbp)
	movl	-64(%rbp), %edx
	movl	-44(%rbp), %eax
	xorl	%edx, %eax
	movl	$7, %esi
	movl	%eax, %edi
	call	CRYPTO_rotl_u32
	.loc 1 70 5 discriminator 4
	movl	%eax, -64(%rbp)
	.loc 1 62 32 is_stmt 1 discriminator 3
	addq	$2, -8(%rbp)
.L42:
	.loc 1 62 24 discriminator 1
	cmpq	$19, -8(%rbp)
	jbe	.L43
.LBE2:
	.loc 1 81 3
	leaq	-80(%rbp), %rcx
	movq	-88(%rbp), %rax
	movl	$16, %edx
	movq	%rcx, %rsi
	movq	%rax, %rdi
	call	OPENSSL_memcpy
	.loc 1 82 18
	movq	-88(%rbp), %rax
	addq	$16, %rax
	.loc 1 82 3
	leaq	-80(%rbp), %rdx
	leaq	48(%rdx), %rcx
	movl	$16, %edx
	movq	%rcx, %rsi
	movq	%rax, %rdi
	call	OPENSSL_memcpy
	.loc 1 84 1
	nop
	leave
	.cfi_def_cfa 7, 8
	ret
	.cfi_endproc
.LFE153:
	.size	aws_lc_0_38_0_CRYPTO_hchacha20, .-aws_lc_0_38_0_CRYPTO_hchacha20
	.section	.text.ChaCha20_ctr32,"ax",@progbits
	.type	ChaCha20_ctr32, @function
ChaCha20_ctr32:
.LFB154:
	.loc 1 88 78
	.cfi_startproc
	pushq	%rbp
	.cfi_def_cfa_offset 16
	.cfi_offset 6, -16
	movq	%rsp, %rbp
	.cfi_def_cfa_register 6
	subq	$48, %rsp
	movq	%rdi, -8(%rbp)
	movq	%rsi, -16(%rbp)
	movq	%rdx, -24(%rbp)
	movq	%rcx, -32(%rbp)
	movq	%r8, -40(%rbp)
	.loc 1 96 7
	movq	-24(%rbp), %rax
	movq	%rax, %rdi
	call	ChaCha20_ctr32_avx2_capable
	.loc 1 96 6 discriminator 1
	testl	%eax, %eax
	je	.L45
	.loc 1 97 5
	movq	-40(%rbp), %rdi
	movq	-32(%rbp), %rcx
	movq	-24(%rbp), %rdx
	movq	-16(%rbp), %rsi
	movq	-8(%rbp), %rax
	movq	%rdi, %r8
	movq	%rax, %rdi
	call	aws_lc_0_38_0_ChaCha20_ctr32_avx2@PLT
	.loc 1 98 5
	jmp	.L44
.L45:
	.loc 1 102 7
	movq	-24(%rbp), %rax
	movq	%rax, %rdi
	call	ChaCha20_ctr32_ssse3_4x_capable
	.loc 1 102 6 discriminator 1
	testl	%eax, %eax
	je	.L47
	.loc 1 103 5
	movq	-40(%rbp), %rdi
	movq	-32(%rbp), %rcx
	movq	-24(%rbp), %rdx
	movq	-16(%rbp), %rsi
	movq	-8(%rbp), %rax
	movq	%rdi, %r8
	movq	%rax, %rdi
	call	aws_lc_0_38_0_ChaCha20_ctr32_ssse3_4x@PLT
	.loc 1 104 5
	jmp	.L44
.L47:
	.loc 1 108 7
	movq	-24(%rbp), %rax
	movq	%rax, %rdi
	call	ChaCha20_ctr32_ssse3_capable
	.loc 1 108 6 discriminator 1
	testl	%eax, %eax
	je	.L48
	.loc 1 109 5
	movq	-40(%rbp), %rdi
	movq	-32(%rbp), %rcx
	movq	-24(%rbp), %rdx
	movq	-16(%rbp), %rsi
	movq	-8(%rbp), %rax
	movq	%rdi, %r8
	movq	%rax, %rdi
	call	aws_lc_0_38_0_ChaCha20_ctr32_ssse3@PLT
	.loc 1 110 5
	jmp	.L44
.L48:
	.loc 1 113 6
	cmpq	$0, -24(%rbp)
	je	.L44
	.loc 1 114 5
	movq	-40(%rbp), %rdi
	movq	-32(%rbp), %rcx
	movq	-24(%rbp), %rdx
	movq	-16(%rbp), %rsi
	movq	-8(%rbp), %rax
	movq	%rdi, %r8
	movq	%rax, %rdi
	call	aws_lc_0_38_0_ChaCha20_ctr32_nohw@PLT
.L44:
	.loc 1 116 1
	leave
	.cfi_def_cfa 7, 8
	ret
	.cfi_endproc
.LFE154:
	.size	ChaCha20_ctr32, .-ChaCha20_ctr32
	.section	.rodata
	.align 8
.LC0:
	.string	"/home/unnamed/.cargo/registry/src/index.crates.io-1949cf8c6b5b557f/aws-lc-sys-0.38.0/aws-lc/crypto/chacha/chacha.c"
	.align 8
.LC1:
	.string	"!buffers_alias(out, in_len, in, in_len) || in == out"
	.section	.text.aws_lc_0_38_0_CRYPTO_chacha_20,"ax",@progbits
	.globl	aws_lc_0_38_0_CRYPTO_chacha_20
	.type	aws_lc_0_38_0_CRYPTO_chacha_20, @function
aws_lc_0_38_0_CRYPTO_chacha_20:
.LFB155:
	.loc 1 123 41
	.cfi_startproc
	pushq	%rbp
	.cfi_def_cfa_offset 16
	.cfi_offset 6, -16
	movq	%rsp, %rbp
	.cfi_def_cfa_register 6
	subq	$80, %rsp
	movq	%rdi, -40(%rbp)
	movq	%rsi, -48(%rbp)
	movq	%rdx, -56(%rbp)
	movq	%rcx, -64(%rbp)
	movq	%r8, -72(%rbp)
	movl	%r9d, -76(%rbp)
	.loc 1 124 3
	movq	-56(%rbp), %rcx
	movq	-48(%rbp), %rdx
	movq	-56(%rbp), %rsi
	movq	-40(%rbp), %rax
	movq	%rax, %rdi
	call	buffers_alias
	.loc 1 124 3 is_stmt 0 discriminator 1
	testl	%eax, %eax
	je	.L50
	movq	-48(%rbp), %rax
	cmpq	-40(%rbp), %rax
	je	.L50
	.loc 1 124 3 discriminator 2
	leaq	__PRETTY_FUNCTION__.0(%rip), %rax
	movq	%rax, %rcx
	movl	$124, %edx
	leaq	.LC0(%rip), %rax
	movq	%rax, %rsi
	leaq	.LC1(%rip), %rax
	movq	%rax, %rdi
	call	__assert_fail@PLT
.L50:
	.loc 1 127 20 is_stmt 1
	movl	-76(%rbp), %eax
	movl	%eax, -32(%rbp)
	.loc 1 128 22
	movq	-72(%rbp), %rax
	movq	%rax, %rdi
	call	CRYPTO_load_u32_le
	.loc 1 128 20 discriminator 1
	movl	%eax, -28(%rbp)
	.loc 1 129 47
	movq	-72(%rbp), %rax
	addq	$4, %rax
	.loc 1 129 22
	movq	%rax, %rdi
	call	CRYPTO_load_u32_le
	.loc 1 129 20 discriminator 1
	movl	%eax, -24(%rbp)
	.loc 1 130 47
	movq	-72(%rbp), %rax
	addq	$8, %rax
	.loc 1 130 22
	movq	%rax, %rdi
	call	CRYPTO_load_u32_le
	.loc 1 130 20 discriminator 1
	movl	%eax, -20(%rbp)
	.loc 1 132 19
	movq	-64(%rbp), %rax
	movq	%rax, -16(%rbp)
	.loc 1 150 9
	jmp	.L51
.L53:
.LBB3:
	.loc 1 155 62
	movl	-32(%rbp), %eax
	movl	%eax, %edx
	.loc 1 155 47
	movabsq	$4294967296, %rax
	subq	%rdx, %rax
	.loc 1 155 14
	salq	$6, %rax
	movq	%rax, -8(%rbp)
	.loc 1 156 8
	movq	-8(%rbp), %rax
	cmpq	%rax, -56(%rbp)
	jnb	.L52
	.loc 1 157 12
	movq	-56(%rbp), %rax
	movq	%rax, -8(%rbp)
.L52:
	.loc 1 160 5
	leaq	-32(%rbp), %rdi
	movq	-16(%rbp), %rcx
	movq	-8(%rbp), %rdx
	movq	-48(%rbp), %rsi
	movq	-40(%rbp), %rax
	movq	%rdi, %r8
	movq	%rax, %rdi
	call	ChaCha20_ctr32
	.loc 1 161 8
	movq	-8(%rbp), %rax
	addq	%rax, -48(%rbp)
	.loc 1 162 9
	movq	-8(%rbp), %rax
	addq	%rax, -40(%rbp)
	.loc 1 163 12
	movq	-8(%rbp), %rax
	subq	%rax, -56(%rbp)
	.loc 1 167 22
	movl	$0, -32(%rbp)
.L51:
.LBE3:
	.loc 1 150 17
	cmpq	$0, -56(%rbp)
	jne	.L53
	.loc 1 169 1
	nop
	nop
	leave
	.cfi_def_cfa 7, 8
	ret
	.cfi_endproc
.LFE155:
	.size	aws_lc_0_38_0_CRYPTO_chacha_20, .-aws_lc_0_38_0_CRYPTO_chacha_20
	.section	.rodata.__PRETTY_FUNCTION__.0,"a"
	.align 16
	.type	__PRETTY_FUNCTION__.0, @object
	.size	__PRETTY_FUNCTION__.0, 31
__PRETTY_FUNCTION__.0:
	.string	"aws_lc_0_38_0_CRYPTO_chacha_20"
	.text
.Letext0:
	.file 5 "/usr/lib/gcc/x86_64-redhat-linux/14/include/stddef.h"
	.file 6 "/usr/include/bits/types.h"
	.file 7 "/usr/include/bits/stdint-uintn.h"
	.file 8 "/usr/include/stdint.h"
	.file 9 "/usr/include/assert.h"
	.file 10 "/usr/include/string.h"
	.section	.note.GNU-stack,"",@progbits
