	.file	"e_aes_cbc_hmac_sha1.c"
	.text
.Ltext0:
	.file 1 "/home/unnamed/.cargo/registry/src/index.crates.io-1949cf8c6b5b557f/aws-lc-sys-0.38.0/aws-lc/crypto/cipher_extra/e_aes_cbc_hmac_sha1.c"
	.section	.text.OPENSSL_ia32cap_get,"ax",@progbits
	.type	OPENSSL_ia32cap_get, @function
OPENSSL_ia32cap_get:
.LFB194:
	.file 2 "/home/unnamed/.cargo/registry/src/index.crates.io-1949cf8c6b5b557f/aws-lc-sys-0.38.0/aws-lc/crypto/cipher_extra/../fipsmodule/aes/../cpucap/internal.h"
	.loc 2 48 58
	.cfi_startproc
	pushq	%rbp
	.cfi_def_cfa_offset 16
	.cfi_offset 6, -16
	movq	%rsp, %rbp
	.cfi_def_cfa_register 6
	.loc 2 49 10
	movq	aws_lc_0_38_0_OPENSSL_ia32cap_P@GOTPCREL(%rip), %rax
	.loc 2 50 1
	popq	%rbp
	.cfi_def_cfa 7, 8
	ret
	.cfi_endproc
.LFE194:
	.size	OPENSSL_ia32cap_get, .-OPENSSL_ia32cap_get
	.section	.text.CRYPTO_is_intel_cpu,"ax",@progbits
	.type	CRYPTO_is_intel_cpu, @function
CRYPTO_is_intel_cpu:
.LFB196:
	.loc 2 59 46
	.cfi_startproc
	pushq	%rbp
	.cfi_def_cfa_offset 16
	.cfi_offset 6, -16
	movq	%rsp, %rbp
	.cfi_def_cfa_register 6
	.loc 2 61 32
	call	OPENSSL_ia32cap_get
	.loc 2 61 32 is_stmt 0 discriminator 1
	movl	(%rax), %eax
	.loc 2 61 36 is_stmt 1 discriminator 1
	andl	$1073741824, %eax
	.loc 2 61 49 discriminator 1
	testl	%eax, %eax
	setne	%al
	movzbl	%al, %eax
	.loc 2 62 1
	popq	%rbp
	.cfi_def_cfa 7, 8
	ret
	.cfi_endproc
.LFE196:
	.size	CRYPTO_is_intel_cpu, .-CRYPTO_is_intel_cpu
	.section	.text.CRYPTO_is_AESNI_capable,"ax",@progbits
	.type	CRYPTO_is_AESNI_capable, @function
CRYPTO_is_AESNI_capable:
.LFB201:
	.loc 2 82 50
	.cfi_startproc
	pushq	%rbp
	.cfi_def_cfa_offset 16
	.cfi_offset 6, -16
	movq	%rsp, %rbp
	.cfi_def_cfa_register 6
	.loc 2 83 11
	call	OPENSSL_ia32cap_get
	.loc 2 83 32 discriminator 1
	addq	$4, %rax
	movl	(%rax), %eax
	.loc 2 83 36 discriminator 1
	andl	$33554432, %eax
	.loc 2 83 49 discriminator 1
	testl	%eax, %eax
	setne	%al
	movzbl	%al, %eax
	.loc 2 84 1
	popq	%rbp
	.cfi_def_cfa 7, 8
	ret
	.cfi_endproc
.LFE201:
	.size	CRYPTO_is_AESNI_capable, .-CRYPTO_is_AESNI_capable
	.section	.text.CRYPTO_is_AVX_capable,"ax",@progbits
	.type	CRYPTO_is_AVX_capable, @function
CRYPTO_is_AVX_capable:
.LFB202:
	.loc 2 89 48
	.cfi_startproc
	pushq	%rbp
	.cfi_def_cfa_offset 16
	.cfi_offset 6, -16
	movq	%rsp, %rbp
	.cfi_def_cfa_register 6
	.loc 2 90 11
	call	OPENSSL_ia32cap_get
	.loc 2 90 32 discriminator 1
	addq	$4, %rax
	movl	(%rax), %eax
	.loc 2 90 36 discriminator 1
	andl	$268435456, %eax
	.loc 2 90 49 discriminator 1
	testl	%eax, %eax
	setne	%al
	movzbl	%al, %eax
	.loc 2 91 1
	popq	%rbp
	.cfi_def_cfa 7, 8
	ret
	.cfi_endproc
.LFE202:
	.size	CRYPTO_is_AVX_capable, .-CRYPTO_is_AVX_capable
	.section	.text.CRYPTO_is_AMD_XOP_support,"ax",@progbits
	.type	CRYPTO_is_AMD_XOP_support, @function
CRYPTO_is_AMD_XOP_support:
.LFB204:
	.loc 2 97 52
	.cfi_startproc
	pushq	%rbp
	.cfi_def_cfa_offset 16
	.cfi_offset 6, -16
	movq	%rsp, %rbp
	.cfi_def_cfa_register 6
	.loc 2 98 11
	call	OPENSSL_ia32cap_get
	.loc 2 98 32 discriminator 1
	addq	$4, %rax
	movl	(%rax), %eax
	.loc 2 98 36 discriminator 1
	andl	$2048, %eax
	.loc 2 98 49 discriminator 1
	testl	%eax, %eax
	setne	%al
	movzbl	%al, %eax
	.loc 2 99 1
	popq	%rbp
	.cfi_def_cfa 7, 8
	ret
	.cfi_endproc
.LFE204:
	.size	CRYPTO_is_AMD_XOP_support, .-CRYPTO_is_AMD_XOP_support
	.section	.text.CRYPTO_is_SHAEXT_capable,"ax",@progbits
	.type	CRYPTO_is_SHAEXT_capable, @function
CRYPTO_is_SHAEXT_capable:
.LFB209:
	.loc 2 119 51
	.cfi_startproc
	pushq	%rbp
	.cfi_def_cfa_offset 16
	.cfi_offset 6, -16
	movq	%rsp, %rbp
	.cfi_def_cfa_register 6
	.loc 2 120 11
	call	OPENSSL_ia32cap_get
	.loc 2 120 32 discriminator 1
	addq	$8, %rax
	movl	(%rax), %eax
	.loc 2 120 36 discriminator 1
	andl	$536870912, %eax
	.loc 2 120 49 discriminator 1
	testl	%eax, %eax
	setne	%al
	movzbl	%al, %eax
	.loc 2 121 1
	popq	%rbp
	.cfi_def_cfa 7, 8
	ret
	.cfi_endproc
.LFE209:
	.size	CRYPTO_is_SHAEXT_capable, .-CRYPTO_is_SHAEXT_capable
	.section	.text.constant_time_msb_w,"ax",@progbits
	.type	constant_time_msb_w, @function
constant_time_msb_w:
.LFB221:
	.file 3 "/home/unnamed/.cargo/registry/src/index.crates.io-1949cf8c6b5b557f/aws-lc-sys-0.38.0/aws-lc/crypto/cipher_extra/../fipsmodule/aes/../../internal.h"
	.loc 3 343 66
	.cfi_startproc
	pushq	%rbp
	.cfi_def_cfa_offset 16
	.cfi_offset 6, -16
	movq	%rsp, %rbp
	.cfi_def_cfa_register 6
	movq	%rdi, -8(%rbp)
	.loc 3 344 13
	movq	-8(%rbp), %rax
	sarq	$63, %rax
	.loc 3 345 1
	popq	%rbp
	.cfi_def_cfa 7, 8
	ret
	.cfi_endproc
.LFE221:
	.size	constant_time_msb_w, .-constant_time_msb_w
	.section	.text.constant_time_is_zero_w,"ax",@progbits
	.type	constant_time_is_zero_w, @function
constant_time_is_zero_w:
.LFB226:
	.loc 3 402 70
	.cfi_startproc
	pushq	%rbp
	.cfi_def_cfa_offset 16
	.cfi_offset 6, -16
	movq	%rsp, %rbp
	.cfi_def_cfa_register 6
	subq	$8, %rsp
	movq	%rdi, -8(%rbp)
	.loc 3 414 30
	movq	-8(%rbp), %rax
	notq	%rax
	movq	%rax, %rdx
	.loc 3 414 38
	movq	-8(%rbp), %rax
	subq	$1, %rax
	.loc 3 414 10
	andq	%rdx, %rax
	movq	%rax, %rdi
	call	constant_time_msb_w
	.loc 3 415 1
	leave
	.cfi_def_cfa 7, 8
	ret
	.cfi_endproc
.LFE226:
	.size	constant_time_is_zero_w, .-constant_time_is_zero_w
	.section	.text.constant_time_eq_w,"ax",@progbits
	.type	constant_time_eq_w, @function
constant_time_eq_w:
.LFB228:
	.loc 3 425 65
	.cfi_startproc
	pushq	%rbp
	.cfi_def_cfa_offset 16
	.cfi_offset 6, -16
	movq	%rsp, %rbp
	.cfi_def_cfa_register 6
	subq	$16, %rsp
	movq	%rdi, -8(%rbp)
	movq	%rsi, -16(%rbp)
	.loc 3 426 10
	movq	-8(%rbp), %rax
	xorq	-16(%rbp), %rax
	movq	%rax, %rdi
	call	constant_time_is_zero_w
	.loc 3 427 1
	leave
	.cfi_def_cfa 7, 8
	ret
	.cfi_endproc
.LFE228:
	.size	constant_time_eq_w, .-constant_time_eq_w
	.section	.text.constant_time_eq_int,"ax",@progbits
	.type	constant_time_eq_int, @function
constant_time_eq_int:
.LFB230:
	.loc 3 437 64
	.cfi_startproc
	pushq	%rbp
	.cfi_def_cfa_offset 16
	.cfi_offset 6, -16
	movq	%rsp, %rbp
	.cfi_def_cfa_register 6
	subq	$8, %rsp
	movl	%edi, -4(%rbp)
	movl	%esi, -8(%rbp)
	.loc 3 438 10
	movl	-8(%rbp), %eax
	movslq	%eax, %rdx
	movl	-4(%rbp), %eax
	cltq
	movq	%rdx, %rsi
	movq	%rax, %rdi
	call	constant_time_eq_w
	.loc 3 439 1
	leave
	.cfi_def_cfa 7, 8
	ret
	.cfi_endproc
.LFE230:
	.size	constant_time_eq_int, .-constant_time_eq_int
	.section	.text.OPENSSL_memcpy,"ax",@progbits
	.type	OPENSSL_memcpy, @function
OPENSSL_memcpy:
.LFB247:
	.loc 3 956 74
	.cfi_startproc
	pushq	%rbp
	.cfi_def_cfa_offset 16
	.cfi_offset 6, -16
	movq	%rsp, %rbp
	.cfi_def_cfa_register 6
	subq	$32, %rsp
	movq	%rdi, -8(%rbp)
	movq	%rsi, -16(%rbp)
	movq	%rdx, -24(%rbp)
	.loc 3 957 6
	cmpq	$0, -24(%rbp)
	jne	.L22
	.loc 3 958 12
	movq	-8(%rbp), %rax
	jmp	.L23
.L22:
	.loc 3 961 10
	movq	-24(%rbp), %rdx
	movq	-16(%rbp), %rcx
	movq	-8(%rbp), %rax
	movq	%rcx, %rsi
	movq	%rax, %rdi
	call	memcpy@PLT
.L23:
	.loc 3 962 1
	leave
	.cfi_def_cfa 7, 8
	ret
	.cfi_endproc
.LFE247:
	.size	OPENSSL_memcpy, .-OPENSSL_memcpy
	.section	.text.OPENSSL_memset,"ax",@progbits
	.type	OPENSSL_memset, @function
OPENSSL_memset:
.LFB249:
	.loc 3 972 64
	.cfi_startproc
	pushq	%rbp
	.cfi_def_cfa_offset 16
	.cfi_offset 6, -16
	movq	%rsp, %rbp
	.cfi_def_cfa_register 6
	subq	$32, %rsp
	movq	%rdi, -8(%rbp)
	movl	%esi, -12(%rbp)
	movq	%rdx, -24(%rbp)
	.loc 3 973 6
	cmpq	$0, -24(%rbp)
	jne	.L25
	.loc 3 974 12
	movq	-8(%rbp), %rax
	jmp	.L26
.L25:
	.loc 3 977 10
	movq	-24(%rbp), %rdx
	movl	-12(%rbp), %ecx
	movq	-8(%rbp), %rax
	movl	%ecx, %esi
	movq	%rax, %rdi
	call	memset@PLT
.L26:
	.loc 3 978 1
	leave
	.cfi_def_cfa 7, 8
	ret
	.cfi_endproc
.LFE249:
	.size	OPENSSL_memset, .-OPENSSL_memset
	.section	.text.hwaes_capable,"ax",@progbits
	.type	hwaes_capable, @function
hwaes_capable:
.LFB282:
	.file 4 "/home/unnamed/.cargo/registry/src/index.crates.io-1949cf8c6b5b557f/aws-lc-sys-0.38.0/aws-lc/crypto/cipher_extra/../fipsmodule/aes/internal.h"
	.loc 4 45 40
	.cfi_startproc
	pushq	%rbp
	.cfi_def_cfa_offset 16
	.cfi_offset 6, -16
	movq	%rsp, %rbp
	.cfi_def_cfa_register 6
	.loc 4 45 49
	call	CRYPTO_is_AESNI_capable
	.loc 4 45 76
	popq	%rbp
	.cfi_def_cfa 7, 8
	ret
	.cfi_endproc
.LFE282:
	.size	hwaes_capable, .-hwaes_capable
	.section	.text.aesni_cbc_hmac_sha1_init_key,"ax",@progbits
	.type	aesni_cbc_hmac_sha1_init_key, @function
aesni_cbc_hmac_sha1_init_key:
.LFB292:
	.loc 1 63 69
	.cfi_startproc
	pushq	%rbp
	.cfi_def_cfa_offset 16
	.cfi_offset 6, -16
	movq	%rsp, %rbp
	.cfi_def_cfa_register 6
	subq	$64, %rsp
	movq	%rdi, 24(%rsp)
	movq	%rsi, 16(%rsp)
	movq	%rdx, 8(%rsp)
	movl	%ecx, 4(%rsp)
	.loc 1 64 22
	movq	24(%rsp), %rax
	movq	16(%rax), %rax
	movq	%rax, 48(%rsp)
	.loc 1 67 18
	movq	24(%rsp), %rax
	movq	%rax, %rdi
	call	aws_lc_0_38_0_EVP_CIPHER_CTX_key_length@PLT
	.loc 1 67 49 discriminator 1
	sall	$3, %eax
	.loc 1 67 7 discriminator 1
	movl	%eax, 44(%rsp)
	.loc 1 68 6
	cmpl	$0, 4(%rsp)
	je	.L30
	.loc 1 69 11
	movq	48(%rsp), %rdx
	movl	44(%rsp), %ecx
	movq	16(%rsp), %rax
	movl	%ecx, %esi
	movq	%rax, %rdi
	call	aws_lc_0_38_0_aes_hw_set_encrypt_key@PLT
	movl	%eax, 60(%rsp)
	jmp	.L31
.L30:
	.loc 1 71 11
	movq	48(%rsp), %rdx
	movl	44(%rsp), %ecx
	movq	16(%rsp), %rax
	movl	%ecx, %esi
	movq	%rax, %rdi
	call	aws_lc_0_38_0_aes_hw_set_decrypt_key@PLT
	movl	%eax, 60(%rsp)
.L31:
	.loc 1 73 6
	cmpl	$0, 60(%rsp)
	jns	.L32
	.loc 1 74 12
	movl	$0, %eax
	jmp	.L33
.L32:
	.loc 1 77 3
	movq	48(%rsp), %rax
	addq	$244, %rax
	movq	%rax, %rdi
	call	aws_lc_0_38_0_SHA1_Init@PLT
	.loc 1 78 13
	movq	48(%rsp), %rax
	movq	48(%rsp), %rdx
	vmovdqu	244(%rdx), %ymm0
	vmovdqu	%ymm0, 340(%rax)
	vmovdqu	276(%rdx), %ymm0
	vmovdqu	%ymm0, 372(%rax)
	vmovdqu	308(%rdx), %ymm0
	vmovdqu	%ymm0, 404(%rax)
	.loc 1 79 11
	movq	48(%rsp), %rax
	movq	48(%rsp), %rdx
	vmovdqu	244(%rdx), %ymm0
	vmovdqu	%ymm0, 436(%rax)
	vmovdqu	276(%rdx), %ymm0
	vmovdqu	%ymm0, 468(%rax)
	vmovdqu	308(%rdx), %ymm0
	vmovdqu	%ymm0, 500(%rax)
	.loc 1 81 23
	movq	48(%rsp), %rax
	movq	$-1, 536(%rax)
	.loc 1 83 10
	movl	$1, %eax
.L33:
	.loc 1 84 1
	leave
	.cfi_def_cfa 7, 8
	ret
	.cfi_endproc
.LFE292:
	.size	aesni_cbc_hmac_sha1_init_key, .-aesni_cbc_hmac_sha1_init_key
	.section	.rodata
	.align 8
.LC0:
	.string	"/home/unnamed/.cargo/registry/src/index.crates.io-1949cf8c6b5b557f/aws-lc-sys-0.38.0/aws-lc/crypto/cipher_extra/e_aes_cbc_hmac_sha1.c"
.LC1:
	.string	"mac_len == SHA_DIGEST_LENGTH"
	.section	.text.aesni_cbc_hmac_sha1_cipher,"ax",@progbits
	.type	aesni_cbc_hmac_sha1_cipher, @function
aesni_cbc_hmac_sha1_cipher:
.LFB293:
	.loc 1 106 70
	.cfi_startproc
	pushq	%rbp
	.cfi_def_cfa_offset 16
	.cfi_offset 6, -16
	movq	%rsp, %rbp
	.cfi_def_cfa_register 6
	pushq	%r12
	pushq	%r10
	pushq	%rbx
	subq	$280, %rsp
	.cfi_offset 12, -24
	.cfi_offset 10, -32
	.cfi_offset 3, -40
	leaq	16(%rbp), %r10
	movq	%rdi, -280(%rbp)
	movq	%rsi, -288(%rbp)
	movq	%rdx, -296(%rbp)
	movq	%rcx, -304(%rbp)
	.loc 1 107 22
	movq	-280(%rbp), %rax
	movq	16(%rax), %rax
	movq	%rax, -72(%rbp)
	.loc 1 108 10
	movq	-72(%rbp), %rax
	movq	536(%rax), %rax
	movq	%rax, -40(%rbp)
	.loc 1 108 38
	movq	$0, -48(%rbp)
	.loc 1 110 23
	movq	-72(%rbp), %rax
	movq	$-1, 536(%rax)
	.loc 1 112 11
	movq	-304(%rbp), %rax
	andl	$15, %eax
	.loc 1 112 6
	testq	%rax, %rax
	je	.L35
	.loc 1 113 5
	movl	$113, %r8d
	leaq	.LC0(%rip), %rax
	movq	%rax, %rcx
	movl	$106, %edx
	movl	$0, %esi
	movl	$30, %edi
	call	aws_lc_0_38_0_ERR_put_error@PLT
	.loc 1 114 12
	movl	$0, %eax
	jmp	.L36
.L35:
	.loc 1 117 7
	movq	-280(%rbp), %rax
	movq	%rax, %rdi
	call	aws_lc_0_38_0_EVP_CIPHER_CTX_encrypting@PLT
	.loc 1 117 6 discriminator 1
	testl	%eax, %eax
	je	.L37
.LBB2:
	.loc 1 127 8
	cmpq	$-1, -40(%rbp)
	jne	.L38
	.loc 1 130 7
	movl	$130, %r8d
	leaq	.LC0(%rip), %rax
	movq	%rax, %rcx
	movl	$140, %edx
	movl	$0, %esi
	movl	$30, %edi
	call	aws_lc_0_38_0_ERR_put_error@PLT
	.loc 1 131 14
	movl	$0, %eax
	jmp	.L36
.L38:
	.loc 1 134 36
	movq	-40(%rbp), %rax
	addq	$36, %rax
	.loc 1 134 54
	andq	$-16, %rax
	.loc 1 133 8
	cmpq	%rax, -304(%rbp)
	je	.L39
	.loc 1 136 7
	movl	$136, %r8d
	leaq	.LC0(%rip), %rax
	movq	%rax, %rcx
	movl	$119, %edx
	movl	$0, %esi
	movl	$30, %edi
	call	aws_lc_0_38_0_ERR_put_error@PLT
	.loc 1 137 14
	movl	$0, %eax
	jmp	.L36
.L39:
	.loc 1 138 24
	movq	-72(%rbp), %rax
	movzwl	544(%rax), %eax
	.loc 1 138 15
	cmpw	$769, %ax
	jbe	.L40
	.loc 1 139 14
	movq	$16, -48(%rbp)
.L40:
	.loc 1 142 12
	movq	$0, -56(%rbp)
	.loc 1 143 42
	movq	-72(%rbp), %rax
	movl	528(%rax), %eax
	.loc 1 143 33
	movl	$64, %edx
	subl	%eax, %edx
	.loc 1 143 12
	movl	%edx, %eax
	movq	%rax, -64(%rbp)
	.loc 1 157 10
	call	CRYPTO_is_SHAEXT_capable
	.loc 1 157 8 discriminator 1
	testl	%eax, %eax
	jne	.L41
	.loc 1 158 10
	call	CRYPTO_is_AVX_capable
	.loc 1 157 37 discriminator 1
	testl	%eax, %eax
	je	.L42
	.loc 1 159 10
	call	CRYPTO_is_AMD_XOP_support
	movl	%eax, %ebx
	.loc 1 159 40 discriminator 1
	call	CRYPTO_is_intel_cpu
	.loc 1 159 38 discriminator 2
	orl	%ebx, %eax
	.loc 1 158 34
	testl	%eax, %eax
	je	.L42
.L41:
	.loc 1 160 25
	movq	-64(%rbp), %rdx
	movq	-48(%rbp), %rax
	addq	%rdx, %rax
	.loc 1 159 65
	cmpq	-40(%rbp), %rax
	jnb	.L42
	.loc 1 161 36
	movq	-64(%rbp), %rdx
	movq	-48(%rbp), %rax
	addq	%rdx, %rax
	.loc 1 161 25
	movq	-40(%rbp), %rdx
	subq	%rax, %rdx
	.loc 1 161 17
	movq	%rdx, %rax
	shrq	$6, %rax
	movq	%rax, -104(%rbp)
	.loc 1 160 35
	cmpq	$0, -104(%rbp)
	je	.L42
	.loc 1 164 32
	movq	-296(%rbp), %rdx
	movq	-48(%rbp), %rax
	leaq	(%rdx,%rax), %rsi
	.loc 1 164 7
	movq	-72(%rbp), %rax
	leaq	436(%rax), %rcx
	movq	-64(%rbp), %rax
	movq	%rax, %rdx
	movq	%rcx, %rdi
	call	aws_lc_0_38_0_SHA1_Update@PLT
	.loc 1 168 38
	movq	-48(%rbp), %rdx
	movq	-64(%rbp), %rax
	addq	%rax, %rdx
	movq	-296(%rbp), %rax
	leaq	(%rdx,%rax), %rdi
	.loc 1 166 7
	movq	-72(%rbp), %rax
	leaq	436(%rax), %r9
	.loc 1 167 29
	movq	-280(%rbp), %rax
	leaq	52(%rax), %r8
	.loc 1 166 43
	movq	-72(%rbp), %rcx
	.loc 1 166 7
	movq	-104(%rbp), %rdx
	movq	-288(%rbp), %rsi
	movq	-296(%rbp), %rax
	subq	$8, %rsp
	pushq	%rdi
	movq	%rax, %rdi
	call	aws_lc_0_38_0_aesni_cbc_sha1_enc@PLT
	addq	$16, %rsp
	.loc 1 171 14
	salq	$6, -104(%rbp)
	.loc 1 172 15
	movq	-104(%rbp), %rax
	addq	%rax, -56(%rbp)
	.loc 1 173 15
	movq	-104(%rbp), %rax
	addq	%rax, -64(%rbp)
	.loc 1 174 14
	movq	-72(%rbp), %rax
	movl	460(%rax), %eax
	.loc 1 174 28
	movq	-104(%rbp), %rdx
	shrq	$29, %rdx
	.loc 1 174 18
	addl	%eax, %edx
	movq	-72(%rbp), %rax
	movl	%edx, 460(%rax)
	.loc 1 175 28
	salq	$3, -104(%rbp)
	movq	-104(%rbp), %rdx
	.loc 1 175 14
	movq	-72(%rbp), %rax
	movl	456(%rax), %eax
	.loc 1 175 18
	addl	%eax, %edx
	movq	-72(%rbp), %rax
	movl	%edx, 456(%rax)
	.loc 1 176 18
	movq	-72(%rbp), %rax
	movl	456(%rax), %eax
	.loc 1 176 24
	movq	-104(%rbp), %rdx
	.loc 1 176 10
	cmpl	%edx, %eax
	jnb	.L44
	.loc 1 177 16
	movq	-72(%rbp), %rax
	movl	460(%rax), %eax
	.loc 1 177 19
	leal	1(%rax), %edx
	movq	-72(%rbp), %rax
	movl	%edx, 460(%rax)
	.loc 1 176 10
	jmp	.L44
.L42:
	.loc 1 180 15
	movq	$0, -64(%rbp)
.L44:
	.loc 1 182 13
	movq	-48(%rbp), %rax
	addq	%rax, -64(%rbp)
	.loc 1 183 5
	movq	-40(%rbp), %rax
	subq	-64(%rbp), %rax
	.loc 1 183 30
	movq	-296(%rbp), %rcx
	movq	-64(%rbp), %rdx
	leaq	(%rcx,%rdx), %rsi
	.loc 1 183 5
	movq	-72(%rbp), %rdx
	leaq	436(%rdx), %rcx
	movq	%rax, %rdx
	movq	%rcx, %rdi
	call	aws_lc_0_38_0_SHA1_Update@PLT
	.loc 1 185 8
	movq	-296(%rbp), %rax
	cmpq	-288(%rbp), %rax
	je	.L45
	.loc 1 186 7
	movq	-40(%rbp), %rax
	subq	-56(%rbp), %rax
	.loc 1 186 40
	movq	-296(%rbp), %rcx
	movq	-56(%rbp), %rdx
	leaq	(%rcx,%rdx), %rsi
	.loc 1 186 26
	movq	-288(%rbp), %rcx
	movq	-56(%rbp), %rdx
	addq	%rdx, %rcx
	.loc 1 186 7
	movq	%rax, %rdx
	movq	%rcx, %rdi
	call	OPENSSL_memcpy
.L45:
	.loc 1 190 5
	movq	-72(%rbp), %rax
	leaq	436(%rax), %rdx
	movq	-288(%rbp), %rcx
	movq	-40(%rbp), %rax
	addq	%rcx, %rax
	movq	%rdx, %rsi
	movq	%rax, %rdi
	call	aws_lc_0_38_0_SHA1_Final@PLT
	.loc 1 191 13
	movq	-72(%rbp), %rax
	movq	-72(%rbp), %rdx
	vmovdqu	340(%rdx), %ymm0
	vmovdqu	%ymm0, 436(%rax)
	vmovdqu	372(%rdx), %ymm0
	vmovdqu	%ymm0, 468(%rax)
	vmovdqu	404(%rdx), %ymm0
	vmovdqu	%ymm0, 500(%rax)
	.loc 1 192 31
	movq	-288(%rbp), %rdx
	movq	-40(%rbp), %rax
	leaq	(%rdx,%rax), %rcx
	.loc 1 192 5
	movq	-72(%rbp), %rax
	addq	$436, %rax
	movl	$20, %edx
	movq	%rcx, %rsi
	movq	%rax, %rdi
	call	aws_lc_0_38_0_SHA1_Update@PLT
	.loc 1 193 5
	movq	-72(%rbp), %rax
	leaq	436(%rax), %rdx
	movq	-288(%rbp), %rcx
	movq	-40(%rbp), %rax
	addq	%rcx, %rax
	movq	%rdx, %rsi
	movq	%rax, %rdi
	call	aws_lc_0_38_0_SHA1_Final@PLT
	.loc 1 196 10
	addq	$20, -40(%rbp)
.LBB3:
	.loc 1 197 31
	movq	-304(%rbp), %rax
	movl	%eax, %ecx
	movq	-40(%rbp), %rax
	movl	%eax, %edx
	movl	%ecx, %eax
	subl	%edx, %eax
	.loc 1 197 23
	subl	$1, %eax
	movl	%eax, -108(%rbp)
	.loc 1 197 5
	jmp	.L46
.L47:
	.loc 1 198 10
	movq	-288(%rbp), %rdx
	movq	-40(%rbp), %rax
	addq	%rdx, %rax
	.loc 1 198 17
	movl	-108(%rbp), %edx
	movb	%dl, (%rax)
	.loc 1 197 59 discriminator 3
	addq	$1, -40(%rbp)
.L46:
	.loc 1 197 48 discriminator 1
	movq	-40(%rbp), %rax
	cmpq	-304(%rbp), %rax
	jb	.L47
.LBE3:
	.loc 1 202 27
	movq	-280(%rbp), %rax
	leaq	52(%rax), %r8
	.loc 1 201 69
	movq	-72(%rbp), %rdx
	.loc 1 201 5
	movq	-304(%rbp), %rax
	subq	-56(%rbp), %rax
	movq	-288(%rbp), %rsi
	movq	-56(%rbp), %rcx
	addq	%rcx, %rsi
	.loc 1 201 28
	movq	-288(%rbp), %rdi
	movq	-56(%rbp), %rcx
	addq	%rcx, %rdi
	.loc 1 201 5
	movl	$1, %r9d
	movq	%rdx, %rcx
	movq	%rax, %rdx
	call	aws_lc_0_38_0_aes_hw_cbc_encrypt@PLT
	.loc 1 203 12
	movl	$1, %eax
	jmp	.L36
.L37:
.LBE2:
.LBB4:
	.loc 1 205 8
	cmpq	$13, -40(%rbp)
	je	.L48
	.loc 1 208 7
	movl	$208, %r8d
	leaq	.LC0(%rip), %rax
	movq	%rax, %rcx
	movl	$140, %edx
	movl	$0, %esi
	movl	$30, %edi
	call	aws_lc_0_38_0_ERR_put_error@PLT
	.loc 1 209 14
	movl	$0, %eax
	jmp	.L36
.L48:
	.loc 1 212 32
	movq	-40(%rbp), %rax
	leaq	-4(%rax), %rdx
	.loc 1 212 26
	movq	-72(%rbp), %rax
	movzbl	544(%rax,%rdx), %eax
	movzbl	%al, %eax
	.loc 1 212 37
	sall	$8, %eax
	movl	%eax, %ecx
	.loc 1 212 66
	movq	-40(%rbp), %rax
	leaq	-3(%rax), %rdx
	.loc 1 212 60
	movq	-72(%rbp), %rax
	movzbl	544(%rax,%rdx), %eax
	movzbl	%al, %eax
	.loc 1 212 42
	orl	%ecx, %eax
	.loc 1 212 8
	cmpl	$769, %eax
	jle	.L50
	.loc 1 214 10
	cmpq	$36, -304(%rbp)
	ja	.L51
	.loc 1 215 9
	movl	$215, %r8d
	leaq	.LC0(%rip), %rax
	movq	%rax, %rcx
	movl	$119, %edx
	movl	$0, %esi
	movl	$30, %edi
	call	aws_lc_0_38_0_ERR_put_error@PLT
	.loc 1 216 16
	movl	$0, %eax
	jmp	.L36
.L51:
	.loc 1 220 25
	movq	-280(%rbp), %rax
	leaq	52(%rax), %rcx
	.loc 1 220 7
	movq	-296(%rbp), %rax
	movl	$16, %edx
	movq	%rax, %rsi
	movq	%rcx, %rdi
	call	OPENSSL_memcpy
	.loc 1 221 10
	addq	$16, -296(%rbp)
	.loc 1 222 11
	addq	$16, -288(%rbp)
	.loc 1 223 11
	subq	$16, -304(%rbp)
	jmp	.L52
.L50:
	.loc 1 224 15
	cmpq	$20, -304(%rbp)
	ja	.L52
	.loc 1 225 7
	movl	$225, %r8d
	leaq	.LC0(%rip), %rax
	movq	%rax, %rcx
	movl	$119, %edx
	movl	$0, %esi
	movl	$30, %edi
	call	aws_lc_0_38_0_ERR_put_error@PLT
	.loc 1 226 14
	movl	$0, %eax
	jmp	.L36
.L52:
	.loc 1 229 51
	movq	-280(%rbp), %rax
	leaq	52(%rax), %rdi
	.loc 1 229 38
	movq	-72(%rbp), %rcx
	.loc 1 229 5
	movq	-304(%rbp), %rdx
	movq	-288(%rbp), %rsi
	movq	-296(%rbp), %rax
	movl	$0, %r9d
	movq	%rdi, %r8
	movq	%rax, %rdi
	call	aws_lc_0_38_0_aes_hw_cbc_encrypt@PLT
	.loc 1 237 10
	movq	-304(%rbp), %rcx
	movq	-288(%rbp), %rdx
	leaq	-120(%rbp), %rsi
	leaq	-128(%rbp), %rax
	movl	$20, %r9d
	movl	$16, %r8d
	movq	%rax, %rdi
	call	aws_lc_0_38_0_EVP_tls_cbc_remove_padding@PLT
	.loc 1 237 8 discriminator 1
	testl	%eax, %eax
	jne	.L53
	.loc 1 240 7
	movl	$240, %r8d
	leaq	.LC0(%rip), %rax
	movq	%rax, %rcx
	movl	$101, %edx
	movl	$0, %esi
	movl	$30, %edi
	call	aws_lc_0_38_0_ERR_put_error@PLT
	.loc 1 241 14
	movl	$0, %eax
	jmp	.L36
.L53:
	.loc 1 244 41
	movq	-120(%rbp), %rax
	.loc 1 244 12
	subq	$20, %rax
	movq	%rax, -80(%rbp)
	.loc 1 246 47
	movq	-80(%rbp), %rax
	shrq	$8, %rax
	.loc 1 246 28
	movl	%eax, %edx
	.loc 1 246 26
	movq	-72(%rbp), %rax
	movb	%dl, 555(%rax)
	.loc 1 247 28
	movq	-80(%rbp), %rax
	movl	%eax, %edx
	.loc 1 247 26
	movq	-72(%rbp), %rax
	movb	%dl, 556(%rax)
	.loc 1 255 59
	movq	-72(%rbp), %rax
	leaq	558(%rax), %r12
	.loc 1 254 71
	movq	-72(%rbp), %rax
	leaq	544(%rax), %rbx
	.loc 1 254 10
	call	aws_lc_0_38_0_EVP_sha1@PLT
	movq	%rax, %rdi
	.loc 1 254 10 is_stmt 0 discriminator 1
	movq	-80(%rbp), %rsi
	movq	-288(%rbp), %rcx
	leaq	-136(%rbp), %rdx
	leaq	-272(%rbp), %rax
	subq	$8, %rsp
	pushq	$64
	pushq	%r12
	pushq	-304(%rbp)
	movq	%rsi, %r9
	movq	%rcx, %r8
	movq	%rbx, %rcx
	movq	%rax, %rsi
	call	aws_lc_0_38_0_EVP_tls_cbc_digest_record@PLT
	addq	$32, %rsp
	.loc 1 254 8 is_stmt 1 discriminator 2
	testl	%eax, %eax
	jne	.L54
	.loc 1 256 7
	movl	$256, %r8d
	leaq	.LC0(%rip), %rax
	movq	%rax, %rcx
	movl	$101, %edx
	movl	$0, %esi
	movl	$30, %edi
	call	aws_lc_0_38_0_ERR_put_error@PLT
	.loc 1 257 14
	movl	$0, %eax
	jmp	.L36
.L54:
	.loc 1 259 5
	movq	-136(%rbp), %rax
	cmpq	$20, %rax
	je	.L55
	.loc 1 259 5 is_stmt 0 discriminator 1
	leaq	__PRETTY_FUNCTION__.0(%rip), %rax
	movq	%rax, %rcx
	movl	$259, %edx
	leaq	.LC0(%rip), %rax
	movq	%rax, %rsi
	leaq	.LC1(%rip), %rax
	movq	%rax, %rdi
	call	__assert_fail@PLT
.L55:
	.loc 1 261 16 is_stmt 1
	leaq	-208(%rbp), %rax
	movq	%rax, -88(%rbp)
	.loc 1 262 5
	movq	-120(%rbp), %rcx
	movq	-136(%rbp), %rsi
	movq	-304(%rbp), %rdi
	movq	-288(%rbp), %rdx
	movq	-88(%rbp), %rax
	movq	%rdi, %r8
	movq	%rax, %rdi
	call	aws_lc_0_38_0_EVP_tls_cbc_copy_mac@PLT
	.loc 1 269 9
	movq	-136(%rbp), %rdx
	leaq	-272(%rbp), %rcx
	movq	-88(%rbp), %rax
	movq	%rcx, %rsi
	movq	%rax, %rdi
	call	aws_lc_0_38_0_CRYPTO_memcmp@PLT
	.loc 1 269 9 is_stmt 0 discriminator 1
	movl	$0, %esi
	movl	%eax, %edi
	call	constant_time_eq_int
	movq	%rax, -96(%rbp)
	.loc 1 270 10 is_stmt 1
	movq	-128(%rbp), %rax
	andq	%rax, -96(%rbp)
	.loc 1 272 8
	cmpq	$0, -96(%rbp)
	jne	.L56
	.loc 1 273 7
	movl	$273, %r8d
	leaq	.LC0(%rip), %rax
	movq	%rax, %rcx
	movl	$101, %edx
	movl	$0, %esi
	movl	$30, %edi
	call	aws_lc_0_38_0_ERR_put_error@PLT
	.loc 1 274 14
	movl	$0, %eax
	jmp	.L36
.L56:
	.loc 1 281 12
	movl	$1, %eax
.L36:
.LBE4:
	.loc 1 283 1
	leaq	-24(%rbp), %rsp
	popq	%rbx
	popq	%r10
	popq	%r12
	popq	%rbp
	.cfi_def_cfa 7, 8
	ret
	.cfi_endproc
.LFE293:
	.size	aesni_cbc_hmac_sha1_cipher, .-aesni_cbc_hmac_sha1_cipher
	.section	.text.aesni_cbc_hmac_sha1_ctrl,"ax",@progbits
	.type	aesni_cbc_hmac_sha1_ctrl, @function
aesni_cbc_hmac_sha1_ctrl:
.LFB294:
	.loc 1 286 48
	.cfi_startproc
	pushq	%rbp
	.cfi_def_cfa_offset 16
	.cfi_offset 6, -16
	movq	%rsp, %rbp
	.cfi_def_cfa_register 6
	subq	$144, %rsp
	movq	%rdi, 24(%rsp)
	movl	%esi, 20(%rsp)
	movl	%edx, 16(%rsp)
	movq	%rcx, 8(%rsp)
	.loc 1 287 22
	movq	24(%rsp), %rax
	movq	16(%rax), %rax
	movq	%rax, 112(%rsp)
	.loc 1 289 3
	cmpl	$22, 20(%rsp)
	je	.L58
	cmpl	$23, 20(%rsp)
	jne	.L59
.LBB5:
	.loc 1 291 10
	cmpl	$0, 16(%rsp)
	jns	.L60
	.loc 1 292 16
	movl	$0, %eax
	jmp	.L68
.L60:
	.loc 1 296 7
	leaq	32(%rsp), %rax
	movl	$64, %edx
	movl	$0, %esi
	movq	%rax, %rdi
	call	OPENSSL_memset
	.loc 1 297 14
	movl	16(%rsp), %eax
	cltq
	movq	%rax, 104(%rsp)
	.loc 1 298 10
	cmpq	$64, 104(%rsp)
	jbe	.L62
	.loc 1 299 9
	movq	112(%rsp), %rax
	addq	$244, %rax
	movq	%rax, %rdi
	call	aws_lc_0_38_0_SHA1_Init@PLT
	.loc 1 300 9
	movl	16(%rsp), %eax
	movslq	%eax, %rdx
	movq	112(%rsp), %rax
	leaq	244(%rax), %rcx
	movq	8(%rsp), %rax
	movq	%rax, %rsi
	movq	%rcx, %rdi
	call	aws_lc_0_38_0_SHA1_Update@PLT
	.loc 1 301 9
	movq	112(%rsp), %rax
	leaq	244(%rax), %rdx
	leaq	32(%rsp), %rax
	movq	%rdx, %rsi
	movq	%rax, %rdi
	call	aws_lc_0_38_0_SHA1_Final@PLT
	jmp	.L63
.L62:
	.loc 1 303 9
	movl	16(%rsp), %eax
	movslq	%eax, %rdx
	movq	8(%rsp), %rcx
	leaq	32(%rsp), %rax
	movq	%rcx, %rsi
	movq	%rax, %rdi
	call	OPENSSL_memcpy
.L63:
	.loc 1 305 22
	movq	112(%rsp), %rax
	leaq	558(%rax), %rcx
	.loc 1 305 7
	leaq	32(%rsp), %rax
	movl	$64, %edx
	movq	%rax, %rsi
	movq	%rcx, %rdi
	call	OPENSSL_memcpy
.LBB6:
	.loc 1 307 19
	movq	$0, 136(%rsp)
	.loc 1 307 7
	jmp	.L64
.L65:
	.loc 1 308 17
	leaq	32(%rsp), %rdx
	movq	136(%rsp), %rax
	addq	%rdx, %rax
	movzbl	(%rax), %eax
	.loc 1 308 21
	xorl	$54, %eax
	movl	%eax, %edx
	leaq	32(%rsp), %rcx
	movq	136(%rsp), %rax
	addq	%rcx, %rax
	movb	%dl, (%rax)
	.loc 1 307 49 discriminator 3
	addq	$1, 136(%rsp)
.L64:
	.loc 1 307 28 discriminator 1
	cmpq	$63, 136(%rsp)
	jbe	.L65
.LBE6:
	.loc 1 310 7
	movq	112(%rsp), %rax
	addq	$244, %rax
	movq	%rax, %rdi
	call	aws_lc_0_38_0_SHA1_Init@PLT
	.loc 1 311 7
	movq	112(%rsp), %rax
	leaq	244(%rax), %rcx
	leaq	32(%rsp), %rax
	movl	$64, %edx
	movq	%rax, %rsi
	movq	%rcx, %rdi
	call	aws_lc_0_38_0_SHA1_Update@PLT
.LBB7:
	.loc 1 313 19
	movq	$0, 128(%rsp)
	.loc 1 313 7
	jmp	.L66
.L67:
	.loc 1 314 17
	leaq	32(%rsp), %rdx
	movq	128(%rsp), %rax
	addq	%rdx, %rax
	movzbl	(%rax), %eax
	.loc 1 314 21
	xorl	$106, %eax
	movl	%eax, %edx
	leaq	32(%rsp), %rcx
	movq	128(%rsp), %rax
	addq	%rcx, %rax
	movb	%dl, (%rax)
	.loc 1 313 49 discriminator 3
	addq	$1, 128(%rsp)
.L66:
	.loc 1 313 28 discriminator 1
	cmpq	$63, 128(%rsp)
	jbe	.L67
.LBE7:
	.loc 1 316 7
	movq	112(%rsp), %rax
	addq	$340, %rax
	movq	%rax, %rdi
	call	aws_lc_0_38_0_SHA1_Init@PLT
	.loc 1 317 7
	movq	112(%rsp), %rax
	leaq	340(%rax), %rcx
	leaq	32(%rsp), %rax
	movl	$64, %edx
	movq	%rax, %rsi
	movq	%rcx, %rdi
	call	aws_lc_0_38_0_SHA1_Update@PLT
	.loc 1 319 7
	leaq	32(%rsp), %rax
	movl	$64, %esi
	movq	%rax, %rdi
	call	aws_lc_0_38_0_OPENSSL_cleanse@PLT
	.loc 1 321 14
	movl	$1, %eax
	jmp	.L68
.L58:
.LBE5:
.LBB8:
	.loc 1 330 16
	movq	8(%rsp), %rax
	movq	%rax, 96(%rsp)
	.loc 1 331 10
	cmpl	$13, 16(%rsp)
	je	.L69
	.loc 1 332 9
	movl	$332, %r8d
	leaq	.LC0(%rip), %rax
	movq	%rax, %rcx
	movl	$109, %edx
	movl	$0, %esi
	movl	$30, %edi
	call	aws_lc_0_38_0_ERR_put_error@PLT
	.loc 1 333 16
	movl	$0, %eax
	jmp	.L68
.L69:
	.loc 1 336 11
	movq	24(%rsp), %rax
	movq	%rax, %rdi
	call	aws_lc_0_38_0_EVP_CIPHER_CTX_encrypting@PLT
	.loc 1 336 10 discriminator 1
	testl	%eax, %eax
	je	.L70
.LBB9:
	.loc 1 337 25
	movl	16(%rsp), %eax
	cltq
	leaq	-2(%rax), %rdx
	movq	96(%rsp), %rax
	addq	%rdx, %rax
	movzbl	(%rax), %eax
	.loc 1 337 40
	movzbl	%al, %eax
	sall	$8, %eax
	movl	%eax, %ecx
	.loc 1 337 43
	movl	16(%rsp), %eax
	cltq
	leaq	-1(%rax), %rdx
	movq	96(%rsp), %rax
	addq	%rdx, %rax
	movzbl	(%rax), %eax
	movzbl	%al, %eax
	.loc 1 337 40
	orl	%ecx, %eax
	.loc 1 337 18
	movw	%ax, 126(%rsp)
	.loc 1 338 29
	movzwl	126(%rsp), %edx
	movq	112(%rsp), %rax
	movq	%rdx, 536(%rax)
	.loc 1 339 34
	movl	16(%rsp), %eax
	cltq
	leaq	-4(%rax), %rdx
	movq	96(%rsp), %rax
	addq	%rdx, %rax
	movzbl	(%rax), %eax
	.loc 1 339 49
	movzbl	%al, %eax
	sall	$8, %eax
	movl	%eax, %ecx
	.loc 1 339 52
	movl	16(%rsp), %eax
	cltq
	leaq	-3(%rax), %rdx
	movq	96(%rsp), %rax
	addq	%rdx, %rax
	movzbl	(%rax), %eax
	movzbl	%al, %eax
	.loc 1 339 49
	orl	%ecx, %eax
	movl	%eax, %edx
	.loc 1 339 31
	movq	112(%rsp), %rax
	movw	%dx, 544(%rax)
	.loc 1 339 22
	movq	112(%rsp), %rax
	movzwl	544(%rax), %eax
	.loc 1 339 12
	cmpw	$769, %ax
	jbe	.L71
	.loc 1 341 14
	cmpw	$15, 126(%rsp)
	ja	.L72
	.loc 1 342 13
	movl	$342, %r8d
	leaq	.LC0(%rip), %rax
	movq	%rax, %rcx
	movl	$109, %edx
	movl	$0, %esi
	movl	$30, %edi
	call	aws_lc_0_38_0_ERR_put_error@PLT
	.loc 1 343 20
	movl	$0, %eax
	jmp	.L68
.L72:
	.loc 1 345 15
	subw	$16, 126(%rsp)
	.loc 1 346 22
	movzwl	126(%rsp), %eax
	shrw	$8, %ax
	movl	%eax, %ecx
	.loc 1 346 12
	movl	16(%rsp), %eax
	cltq
	leaq	-2(%rax), %rdx
	movq	96(%rsp), %rax
	addq	%rdx, %rax
	.loc 1 346 22
	movl	%ecx, %edx
	movb	%dl, (%rax)
	.loc 1 347 12
	movl	16(%rsp), %eax
	cltq
	leaq	-1(%rax), %rdx
	movq	96(%rsp), %rax
	addq	%rdx, %rax
	.loc 1 347 22
	movzwl	126(%rsp), %edx
	movb	%dl, (%rax)
.L71:
	.loc 1 349 17
	movq	112(%rsp), %rax
	movq	112(%rsp), %rdx
	vmovdqu	244(%rdx), %ymm0
	vmovdqu	%ymm0, 436(%rax)
	vmovdqu	276(%rdx), %ymm0
	vmovdqu	%ymm0, 468(%rax)
	vmovdqu	308(%rdx), %ymm0
	vmovdqu	%ymm0, 500(%rax)
	.loc 1 350 9
	movl	16(%rsp), %eax
	movslq	%eax, %rdx
	movq	112(%rsp), %rax
	leaq	436(%rax), %rcx
	movq	96(%rsp), %rax
	movq	%rax, %rsi
	movq	%rcx, %rdi
	call	aws_lc_0_38_0_SHA1_Update@PLT
	.loc 1 352 48
	movzwl	126(%rsp), %eax
	addl	$36, %eax
	.loc 1 352 66
	andl	$-16, %eax
	.loc 1 352 16
	movzwl	126(%rsp), %edx
	subl	%edx, %eax
	jmp	.L68
.L70:
.LBE9:
	.loc 1 356 9
	movl	16(%rsp), %eax
	movslq	%eax, %rdx
	.loc 1 356 32
	movq	112(%rsp), %rax
	leaq	544(%rax), %rcx
	.loc 1 356 9
	movq	8(%rsp), %rax
	movq	%rax, %rsi
	movq	%rcx, %rdi
	call	OPENSSL_memcpy
	.loc 1 357 29
	movl	16(%rsp), %eax
	movslq	%eax, %rdx
	movq	112(%rsp), %rax
	movq	%rdx, 536(%rax)
	.loc 1 359 16
	movl	$20, %eax
	jmp	.L68
.L59:
.LBE8:
	.loc 1 363 7
	movl	$363, %r8d
	leaq	.LC0(%rip), %rax
	movq	%rax, %rcx
	movl	$104, %edx
	movl	$0, %esi
	movl	$30, %edi
	call	aws_lc_0_38_0_ERR_put_error@PLT
	.loc 1 364 14
	movl	$0, %eax
.L68:
	.loc 1 366 1
	leave
	.cfi_def_cfa 7, 8
	ret
	.cfi_endproc
.LFE294:
	.size	aesni_cbc_hmac_sha1_ctrl, .-aesni_cbc_hmac_sha1_ctrl
	.section	.data.rel.ro.local.aesni_128_cbc_hmac_sha1_cipher,"aw"
	.align 32
	.type	aesni_128_cbc_hmac_sha1_cipher, @object
	.size	aesni_128_cbc_hmac_sha1_cipher, 56
aesni_128_cbc_hmac_sha1_cipher:
	.long	916
	.long	16
	.long	16
	.long	16
	.long	624
	.long	2050
	.quad	aesni_cbc_hmac_sha1_init_key
	.quad	aesni_cbc_hmac_sha1_cipher
	.quad	0
	.quad	aesni_cbc_hmac_sha1_ctrl
	.section	.data.rel.ro.local.aesni_256_cbc_hmac_sha1_cipher,"aw"
	.align 32
	.type	aesni_256_cbc_hmac_sha1_cipher, @object
	.size	aesni_256_cbc_hmac_sha1_cipher, 56
aesni_256_cbc_hmac_sha1_cipher:
	.long	918
	.long	16
	.long	32
	.long	16
	.long	624
	.long	2050
	.quad	aesni_cbc_hmac_sha1_init_key
	.quad	aesni_cbc_hmac_sha1_cipher
	.quad	0
	.quad	aesni_cbc_hmac_sha1_ctrl
	.section	.text.aws_lc_0_38_0_EVP_aes_128_cbc_hmac_sha1,"ax",@progbits
	.globl	aws_lc_0_38_0_EVP_aes_128_cbc_hmac_sha1
	.type	aws_lc_0_38_0_EVP_aes_128_cbc_hmac_sha1, @function
aws_lc_0_38_0_EVP_aes_128_cbc_hmac_sha1:
.LFB295:
	.loc 1 392 51
	.cfi_startproc
	pushq	%rbp
	.cfi_def_cfa_offset 16
	.cfi_offset 6, -16
	movq	%rsp, %rbp
	.cfi_def_cfa_register 6
	.loc 1 393 11
	call	hwaes_capable
	.loc 1 393 61 discriminator 1
	testl	%eax, %eax
	je	.L74
	leaq	aesni_128_cbc_hmac_sha1_cipher(%rip), %rax
	.loc 1 393 61 is_stmt 0
	jmp	.L76
.L74:
	.loc 1 393 61 discriminator 2
	movl	$0, %eax
.L76:
	.loc 1 394 1 is_stmt 1
	popq	%rbp
	.cfi_def_cfa 7, 8
	ret
	.cfi_endproc
.LFE295:
	.size	aws_lc_0_38_0_EVP_aes_128_cbc_hmac_sha1, .-aws_lc_0_38_0_EVP_aes_128_cbc_hmac_sha1
	.section	.text.aws_lc_0_38_0_EVP_aes_256_cbc_hmac_sha1,"ax",@progbits
	.globl	aws_lc_0_38_0_EVP_aes_256_cbc_hmac_sha1
	.type	aws_lc_0_38_0_EVP_aes_256_cbc_hmac_sha1, @function
aws_lc_0_38_0_EVP_aes_256_cbc_hmac_sha1:
.LFB296:
	.loc 1 396 51
	.cfi_startproc
	pushq	%rbp
	.cfi_def_cfa_offset 16
	.cfi_offset 6, -16
	movq	%rsp, %rbp
	.cfi_def_cfa_register 6
	.loc 1 397 11
	call	hwaes_capable
	.loc 1 397 61 discriminator 1
	testl	%eax, %eax
	je	.L78
	leaq	aesni_256_cbc_hmac_sha1_cipher(%rip), %rax
	.loc 1 397 61 is_stmt 0
	jmp	.L80
.L78:
	.loc 1 397 61 discriminator 2
	movl	$0, %eax
.L80:
	.loc 1 398 1 is_stmt 1
	popq	%rbp
	.cfi_def_cfa 7, 8
	ret
	.cfi_endproc
.LFE296:
	.size	aws_lc_0_38_0_EVP_aes_256_cbc_hmac_sha1, .-aws_lc_0_38_0_EVP_aes_256_cbc_hmac_sha1
	.section	.rodata.__PRETTY_FUNCTION__.0,"a"
	.align 16
	.type	__PRETTY_FUNCTION__.0, @object
	.size	__PRETTY_FUNCTION__.0, 27
__PRETTY_FUNCTION__.0:
	.string	"aesni_cbc_hmac_sha1_cipher"
	.text
.Letext0:
	.file 5 "/usr/lib/gcc/x86_64-redhat-linux/14/include/stddef.h"
	.file 6 "/usr/include/bits/types.h"
	.file 7 "/usr/include/bits/stdint-uintn.h"
	.file 8 "/home/unnamed/.cargo/registry/src/index.crates.io-1949cf8c6b5b557f/aws-lc-sys-0.38.0/aws-lc/include/openssl/base.h"
	.file 9 "/home/unnamed/.cargo/registry/src/index.crates.io-1949cf8c6b5b557f/aws-lc-sys-0.38.0/aws-lc/include/openssl/cipher.h"
	.file 10 "/home/unnamed/.cargo/registry/src/index.crates.io-1949cf8c6b5b557f/aws-lc-sys-0.38.0/aws-lc/crypto/cipher_extra/../fipsmodule/cipher/internal.h"
	.file 11 "/home/unnamed/.cargo/registry/src/index.crates.io-1949cf8c6b5b557f/aws-lc-sys-0.38.0/aws-lc/include/openssl/sha.h"
	.file 12 "/home/unnamed/.cargo/registry/src/index.crates.io-1949cf8c6b5b557f/aws-lc-sys-0.38.0/aws-lc/include/openssl/aes.h"
	.file 13 "/usr/include/string.h"
	.file 14 "/home/unnamed/.cargo/registry/src/index.crates.io-1949cf8c6b5b557f/aws-lc-sys-0.38.0/aws-lc/include/openssl/mem.h"
	.file 15 "/home/unnamed/.cargo/registry/src/index.crates.io-1949cf8c6b5b557f/aws-lc-sys-0.38.0/aws-lc/crypto/cipher_extra/internal.h"
	.file 16 "/usr/include/assert.h"
	.file 17 "/home/unnamed/.cargo/registry/src/index.crates.io-1949cf8c6b5b557f/aws-lc-sys-0.38.0/aws-lc/include/openssl/err.h"
	.file 18 "/home/unnamed/.cargo/registry/src/index.crates.io-1949cf8c6b5b557f/aws-lc-sys-0.38.0/aws-lc/include/openssl/digest.h"
	.section	.note.GNU-stack,"",@progbits
