	.file	"cipher_extra.c"
	.text
.Ltext0:
	.file 1 "/home/unnamed/.cargo/registry/src/index.crates.io-1949cf8c6b5b557f/aws-lc-sys-0.38.0/aws-lc/crypto/cipher_extra/cipher_extra.c"
	.section	.rodata
.LC0:
	.string	"aes-128-cbc"
.LC1:
	.string	"aes-128-cfb"
.LC2:
	.string	"aes-128-ctr"
.LC3:
	.string	"aes-128-ecb"
.LC4:
	.string	"aes-128-gcm"
.LC5:
	.string	"aes-128-ofb"
.LC6:
	.string	"aes-192-cbc"
.LC7:
	.string	"aes-192-cfb"
.LC8:
	.string	"aes-192-ctr"
.LC9:
	.string	"aes-192-ecb"
.LC10:
	.string	"aes-192-gcm"
.LC11:
	.string	"aes-192-ofb"
.LC12:
	.string	"aes-256-cbc"
.LC13:
	.string	"aes-256-cfb"
.LC14:
	.string	"aes-256-ctr"
.LC15:
	.string	"aes-256-ecb"
.LC16:
	.string	"aes-256-gcm"
.LC17:
	.string	"aes-256-ofb"
.LC18:
	.string	"aes-256-xts"
.LC19:
	.string	"chacha20-poly1305"
.LC20:
	.string	"des-cbc"
.LC21:
	.string	"des-ecb"
.LC22:
	.string	"des-ede-cbc"
.LC23:
	.string	"des-ede"
.LC24:
	.string	"des-ede3-cbc"
.LC25:
	.string	"rc2-cbc"
.LC26:
	.string	"rc4"
.LC27:
	.string	"bf-cbc"
.LC28:
	.string	"bf-cfb"
.LC29:
	.string	"bf-ecb"
	.section	.data.rel.ro.kCiphers,"aw"
	.align 32
	.type	kCiphers, @object
	.size	kCiphers, 720
kCiphers:
	.long	419
	.zero	4
	.quad	.LC0
	.quad	aws_lc_0_38_0_EVP_aes_128_cbc
	.long	421
	.zero	4
	.quad	.LC1
	.quad	aws_lc_0_38_0_EVP_aes_128_cfb
	.long	904
	.zero	4
	.quad	.LC2
	.quad	aws_lc_0_38_0_EVP_aes_128_ctr
	.long	418
	.zero	4
	.quad	.LC3
	.quad	aws_lc_0_38_0_EVP_aes_128_ecb
	.long	895
	.zero	4
	.quad	.LC4
	.quad	aws_lc_0_38_0_EVP_aes_128_gcm
	.long	420
	.zero	4
	.quad	.LC5
	.quad	aws_lc_0_38_0_EVP_aes_128_ofb
	.long	423
	.zero	4
	.quad	.LC6
	.quad	aws_lc_0_38_0_EVP_aes_192_cbc
	.long	425
	.zero	4
	.quad	.LC7
	.quad	aws_lc_0_38_0_EVP_aes_192_cfb
	.long	905
	.zero	4
	.quad	.LC8
	.quad	aws_lc_0_38_0_EVP_aes_192_ctr
	.long	422
	.zero	4
	.quad	.LC9
	.quad	aws_lc_0_38_0_EVP_aes_192_ecb
	.long	898
	.zero	4
	.quad	.LC10
	.quad	aws_lc_0_38_0_EVP_aes_192_gcm
	.long	424
	.zero	4
	.quad	.LC11
	.quad	aws_lc_0_38_0_EVP_aes_192_ofb
	.long	427
	.zero	4
	.quad	.LC12
	.quad	aws_lc_0_38_0_EVP_aes_256_cbc
	.long	429
	.zero	4
	.quad	.LC13
	.quad	aws_lc_0_38_0_EVP_aes_256_cfb
	.long	906
	.zero	4
	.quad	.LC14
	.quad	aws_lc_0_38_0_EVP_aes_256_ctr
	.long	426
	.zero	4
	.quad	.LC15
	.quad	aws_lc_0_38_0_EVP_aes_256_ecb
	.long	901
	.zero	4
	.quad	.LC16
	.quad	aws_lc_0_38_0_EVP_aes_256_gcm
	.long	428
	.zero	4
	.quad	.LC17
	.quad	aws_lc_0_38_0_EVP_aes_256_ofb
	.long	914
	.zero	4
	.quad	.LC18
	.quad	aws_lc_0_38_0_EVP_aes_256_xts
	.long	950
	.zero	4
	.quad	.LC19
	.quad	aws_lc_0_38_0_EVP_chacha20_poly1305
	.long	31
	.zero	4
	.quad	.LC20
	.quad	aws_lc_0_38_0_EVP_des_cbc
	.long	29
	.zero	4
	.quad	.LC21
	.quad	aws_lc_0_38_0_EVP_des_ecb
	.long	43
	.zero	4
	.quad	.LC22
	.quad	aws_lc_0_38_0_EVP_des_ede_cbc
	.long	32
	.zero	4
	.quad	.LC23
	.quad	aws_lc_0_38_0_EVP_des_ede
	.long	44
	.zero	4
	.quad	.LC24
	.quad	aws_lc_0_38_0_EVP_des_ede3_cbc
	.long	37
	.zero	4
	.quad	.LC25
	.quad	aws_lc_0_38_0_EVP_rc2_cbc
	.long	5
	.zero	4
	.quad	.LC26
	.quad	aws_lc_0_38_0_EVP_rc4
	.long	91
	.zero	4
	.quad	.LC27
	.quad	aws_lc_0_38_0_EVP_bf_cbc
	.long	93
	.zero	4
	.quad	.LC28
	.quad	aws_lc_0_38_0_EVP_bf_cfb
	.long	92
	.zero	4
	.quad	.LC29
	.quad	aws_lc_0_38_0_EVP_bf_ecb
	.section	.rodata
.LC30:
	.string	"3des"
.LC31:
	.string	"DES"
.LC32:
	.string	"aes256"
.LC33:
	.string	"aes128"
.LC34:
	.string	"id-aes128-gcm"
.LC35:
	.string	"id-aes192-gcm"
.LC36:
	.string	"id-aes256-gcm"
	.section	.data.rel.ro.local.kCipherAliases,"aw"
	.align 32
	.type	kCipherAliases, @object
	.size	kCipherAliases, 112
kCipherAliases:
	.quad	.LC30
	.quad	.LC24
	.quad	.LC31
	.quad	.LC20
	.quad	.LC32
	.quad	.LC12
	.quad	.LC33
	.quad	.LC0
	.quad	.LC34
	.quad	.LC4
	.quad	.LC35
	.quad	.LC10
	.quad	.LC36
	.quad	.LC16
	.section	.text.aws_lc_0_38_0_EVP_get_cipherbynid,"ax",@progbits
	.globl	aws_lc_0_38_0_EVP_get_cipherbynid
	.type	aws_lc_0_38_0_EVP_get_cipherbynid, @function
aws_lc_0_38_0_EVP_get_cipherbynid:
.LFB151:
	.loc 1 120 48
	.cfi_startproc
	pushq	%rbp
	.cfi_def_cfa_offset 16
	.cfi_offset 6, -16
	movq	%rsp, %rbp
	.cfi_def_cfa_register 6
	subq	$32, %rsp
	movl	%edi, -20(%rbp)
.LBB2:
	.loc 1 121 15
	movq	$0, -8(%rbp)
	.loc 1 121 3
	jmp	.L2
.L5:
	.loc 1 122 20
	movq	-8(%rbp), %rdx
	movq	%rdx, %rax
	addq	%rax, %rax
	addq	%rdx, %rax
	salq	$3, %rax
	movq	%rax, %rdx
	leaq	kCiphers(%rip), %rax
	movl	(%rdx,%rax), %eax
	.loc 1 122 8
	cmpl	%eax, -20(%rbp)
	jne	.L3
	.loc 1 123 25
	movq	-8(%rbp), %rdx
	movq	%rdx, %rax
	addq	%rax, %rax
	addq	%rdx, %rax
	salq	$3, %rax
	movq	%rax, %rdx
	leaq	16+kCiphers(%rip), %rax
	movq	(%rdx,%rax), %rax
	.loc 1 123 14
	call	*%rax
.LVL0:
	jmp	.L4
.L3:
	.loc 1 121 57 discriminator 2
	addq	$1, -8(%rbp)
.L2:
	.loc 1 121 24 discriminator 1
	cmpq	$29, -8(%rbp)
	jbe	.L5
.LBE2:
	.loc 1 126 10
	movl	$0, %eax
.L4:
	.loc 1 127 1
	leave
	.cfi_def_cfa 7, 8
	ret
	.cfi_endproc
.LFE151:
	.size	aws_lc_0_38_0_EVP_get_cipherbynid, .-aws_lc_0_38_0_EVP_get_cipherbynid
	.section	.text.get_cipherbyname,"ax",@progbits
	.type	get_cipherbyname, @function
get_cipherbyname:
.LFB152:
	.loc 1 129 61
	.cfi_startproc
	pushq	%rbp
	.cfi_def_cfa_offset 16
	.cfi_offset 6, -16
	movq	%rsp, %rbp
	.cfi_def_cfa_register 6
	subq	$32, %rsp
	movq	%rdi, -24(%rbp)
.LBB3:
	.loc 1 130 15
	movq	$0, -8(%rbp)
	.loc 1 130 3
	jmp	.L7
.L10:
	.loc 1 131 39
	movq	-8(%rbp), %rdx
	movq	%rdx, %rax
	addq	%rax, %rax
	addq	%rdx, %rax
	salq	$3, %rax
	movq	%rax, %rdx
	leaq	8+kCiphers(%rip), %rax
	movq	(%rdx,%rax), %rax
	.loc 1 131 9
	movq	-24(%rbp), %rdx
	movq	%rdx, %rsi
	movq	%rax, %rdi
	call	aws_lc_0_38_0_OPENSSL_strcasecmp@PLT
	.loc 1 131 8 discriminator 1
	testl	%eax, %eax
	jne	.L8
	.loc 1 132 25
	movq	-8(%rbp), %rdx
	movq	%rdx, %rax
	addq	%rax, %rax
	addq	%rdx, %rax
	salq	$3, %rax
	movq	%rax, %rdx
	leaq	16+kCiphers(%rip), %rax
	movq	(%rdx,%rax), %rax
	.loc 1 132 14
	call	*%rax
.LVL1:
	jmp	.L9
.L8:
	.loc 1 130 57 discriminator 2
	addq	$1, -8(%rbp)
.L7:
	.loc 1 130 24 discriminator 1
	cmpq	$29, -8(%rbp)
	jbe	.L10
.LBE3:
	.loc 1 136 10
	movl	$0, %eax
.L9:
	.loc 1 137 1
	leave
	.cfi_def_cfa 7, 8
	ret
	.cfi_endproc
.LFE152:
	.size	get_cipherbyname, .-get_cipherbyname
	.section	.rodata
	.align 8
.LC37:
	.string	"/home/unnamed/.cargo/registry/src/index.crates.io-1949cf8c6b5b557f/aws-lc-sys-0.38.0/aws-lc/crypto/cipher_extra/cipher_extra.c"
.LC38:
	.string	"cipher != NULL"
	.section	.text.aws_lc_0_38_0_EVP_get_cipherbyname,"ax",@progbits
	.globl	aws_lc_0_38_0_EVP_get_cipherbyname
	.type	aws_lc_0_38_0_EVP_get_cipherbyname, @function
aws_lc_0_38_0_EVP_get_cipherbyname:
.LFB153:
	.loc 1 139 58
	.cfi_startproc
	pushq	%rbp
	.cfi_def_cfa_offset 16
	.cfi_offset 6, -16
	movq	%rsp, %rbp
	.cfi_def_cfa_register 6
	subq	$48, %rsp
	movq	%rdi, -40(%rbp)
	.loc 1 140 6
	cmpq	$0, -40(%rbp)
	jne	.L12
	.loc 1 141 12
	movl	$0, %eax
	jmp	.L13
.L12:
	.loc 1 144 27
	movq	-40(%rbp), %rax
	movq	%rax, %rdi
	call	get_cipherbyname
	movq	%rax, -16(%rbp)
	.loc 1 145 6
	cmpq	$0, -16(%rbp)
	je	.L14
	.loc 1 146 12
	movq	-16(%rbp), %rax
	jmp	.L13
.L14:
.LBB4:
	.loc 1 152 14
	movq	$0, -8(%rbp)
	.loc 1 152 3
	jmp	.L15
.L18:
	.loc 1 153 51
	movq	-8(%rbp), %rax
	salq	$4, %rax
	movq	%rax, %rdx
	leaq	kCipherAliases(%rip), %rax
	movq	(%rdx,%rax), %rdx
	.loc 1 153 9
	movq	-40(%rbp), %rax
	movq	%rdx, %rsi
	movq	%rax, %rdi
	call	aws_lc_0_38_0_OPENSSL_strcasecmp@PLT
	.loc 1 153 8 discriminator 1
	testl	%eax, %eax
	jne	.L16
.LBB5:
	.loc 1 154 12
	movq	-8(%rbp), %rax
	salq	$4, %rax
	movq	%rax, %rdx
	leaq	8+kCipherAliases(%rip), %rax
	movq	(%rdx,%rax), %rax
	movq	%rax, -40(%rbp)
	.loc 1 155 35
	movq	-40(%rbp), %rax
	movq	%rax, %rdi
	call	get_cipherbyname
	movq	%rax, -24(%rbp)
	.loc 1 156 7
	cmpq	$0, -24(%rbp)
	jne	.L17
	.loc 1 156 7 is_stmt 0 discriminator 1
	leaq	__PRETTY_FUNCTION__.0(%rip), %rax
	movq	%rax, %rcx
	movl	$156, %edx
	leaq	.LC37(%rip), %rax
	movq	%rax, %rsi
	leaq	.LC38(%rip), %rax
	movq	%rax, %rdi
	call	__assert_fail@PLT
.L17:
	.loc 1 157 14 is_stmt 1
	movq	-24(%rbp), %rax
	jmp	.L13
.L16:
.LBE5:
	.loc 1 152 62 discriminator 2
	addq	$1, -8(%rbp)
.L15:
	.loc 1 152 23 discriminator 1
	cmpq	$6, -8(%rbp)
	jbe	.L18
.LBE4:
	.loc 1 161 10
	movl	$0, %eax
.L13:
	.loc 1 162 1
	leave
	.cfi_def_cfa 7, 8
	ret
	.cfi_endproc
.LFE153:
	.size	aws_lc_0_38_0_EVP_get_cipherbyname, .-aws_lc_0_38_0_EVP_get_cipherbyname
	.section	.rodata.__PRETTY_FUNCTION__.0,"a"
	.align 32
	.type	__PRETTY_FUNCTION__.0, @object
	.size	__PRETTY_FUNCTION__.0, 35
__PRETTY_FUNCTION__.0:
	.string	"aws_lc_0_38_0_EVP_get_cipherbyname"
	.text
.Letext0:
	.file 2 "/usr/lib/gcc/x86_64-redhat-linux/14/include/stddef.h"
	.file 3 "/home/unnamed/.cargo/registry/src/index.crates.io-1949cf8c6b5b557f/aws-lc-sys-0.38.0/aws-lc/include/openssl/base.h"
	.file 4 "/usr/include/assert.h"
	.file 5 "/home/unnamed/.cargo/registry/src/index.crates.io-1949cf8c6b5b557f/aws-lc-sys-0.38.0/aws-lc/include/openssl/mem.h"
	.file 6 "/home/unnamed/.cargo/registry/src/index.crates.io-1949cf8c6b5b557f/aws-lc-sys-0.38.0/aws-lc/include/openssl/cipher.h"
	.section	.note.GNU-stack,"",@progbits
