	.file	"buf.c"
	.text
.Ltext0:
	.file 1 "/home/unnamed/.cargo/registry/src/index.crates.io-1949cf8c6b5b557f/aws-lc-sys-0.38.0/aws-lc/crypto/buf/buf.c"
	.section	.text.OPENSSL_memcpy,"ax",@progbits
	.type	OPENSSL_memcpy, @function
OPENSSL_memcpy:
.LFB94:
	.file 2 "/home/unnamed/.cargo/registry/src/index.crates.io-1949cf8c6b5b557f/aws-lc-sys-0.38.0/aws-lc/crypto/buf/../internal.h"
	.loc 2 956 74
	.cfi_startproc
	pushq	%rbp
	.cfi_def_cfa_offset 16
	.cfi_offset 6, -16
	movq	%rsp, %rbp
	.cfi_def_cfa_register 6
	subq	$32, %rsp
	movq	%rdi, -8(%rbp)
	movq	%rsi, -16(%rbp)
	movq	%rdx, -24(%rbp)
	.loc 2 957 6
	cmpq	$0, -24(%rbp)
	jne	.L2
	.loc 2 958 12
	movq	-8(%rbp), %rax
	jmp	.L3
.L2:
	.loc 2 961 10
	movq	-24(%rbp), %rdx
	movq	-16(%rbp), %rcx
	movq	-8(%rbp), %rax
	movq	%rcx, %rsi
	movq	%rax, %rdi
	call	memcpy@PLT
.L3:
	.loc 2 962 1
	leave
	.cfi_def_cfa 7, 8
	ret
	.cfi_endproc
.LFE94:
	.size	OPENSSL_memcpy, .-OPENSSL_memcpy
	.section	.text.OPENSSL_memset,"ax",@progbits
	.type	OPENSSL_memset, @function
OPENSSL_memset:
.LFB96:
	.loc 2 972 64
	.cfi_startproc
	pushq	%rbp
	.cfi_def_cfa_offset 16
	.cfi_offset 6, -16
	movq	%rsp, %rbp
	.cfi_def_cfa_register 6
	subq	$32, %rsp
	movq	%rdi, -8(%rbp)
	movl	%esi, -12(%rbp)
	movq	%rdx, -24(%rbp)
	.loc 2 973 6
	cmpq	$0, -24(%rbp)
	jne	.L5
	.loc 2 974 12
	movq	-8(%rbp), %rax
	jmp	.L6
.L5:
	.loc 2 977 10
	movq	-24(%rbp), %rdx
	movl	-12(%rbp), %ecx
	movq	-8(%rbp), %rax
	movl	%ecx, %esi
	movq	%rax, %rdi
	call	memset@PLT
.L6:
	.loc 2 978 1
	leave
	.cfi_def_cfa 7, 8
	ret
	.cfi_endproc
.LFE96:
	.size	OPENSSL_memset, .-OPENSSL_memset
	.section	.text.aws_lc_0_38_0_BUF_MEM_new,"ax",@progbits
	.globl	aws_lc_0_38_0_BUF_MEM_new
	.type	aws_lc_0_38_0_BUF_MEM_new, @function
aws_lc_0_38_0_BUF_MEM_new:
.LFB128:
	.loc 1 67 28
	.cfi_startproc
	pushq	%rbp
	.cfi_def_cfa_offset 16
	.cfi_offset 6, -16
	movq	%rsp, %rbp
	.cfi_def_cfa_register 6
	.loc 1 67 37
	movl	$24, %edi
	call	aws_lc_0_38_0_OPENSSL_zalloc@PLT
	.loc 1 67 70
	popq	%rbp
	.cfi_def_cfa 7, 8
	ret
	.cfi_endproc
.LFE128:
	.size	aws_lc_0_38_0_BUF_MEM_new, .-aws_lc_0_38_0_BUF_MEM_new
	.section	.text.aws_lc_0_38_0_BUF_MEM_free,"ax",@progbits
	.globl	aws_lc_0_38_0_BUF_MEM_free
	.type	aws_lc_0_38_0_BUF_MEM_free, @function
aws_lc_0_38_0_BUF_MEM_free:
.LFB129:
	.loc 1 69 33
	.cfi_startproc
	pushq	%rbp
	.cfi_def_cfa_offset 16
	.cfi_offset 6, -16
	movq	%rsp, %rbp
	.cfi_def_cfa_register 6
	subq	$16, %rsp
	movq	%rdi, -8(%rbp)
	.loc 1 70 6
	cmpq	$0, -8(%rbp)
	je	.L12
	.loc 1 74 19
	movq	-8(%rbp), %rax
	movq	8(%rax), %rax
	.loc 1 74 3
	movq	%rax, %rdi
	call	aws_lc_0_38_0_OPENSSL_free@PLT
	.loc 1 75 3
	movq	-8(%rbp), %rax
	movq	%rax, %rdi
	call	aws_lc_0_38_0_OPENSSL_free@PLT
	jmp	.L9
.L12:
	.loc 1 71 5
	nop
.L9:
	.loc 1 76 1
	leave
	.cfi_def_cfa 7, 8
	ret
	.cfi_endproc
.LFE129:
	.size	aws_lc_0_38_0_BUF_MEM_free, .-aws_lc_0_38_0_BUF_MEM_free
	.section	.rodata
	.align 8
.LC0:
	.string	"/home/unnamed/.cargo/registry/src/index.crates.io-1949cf8c6b5b557f/aws-lc-sys-0.38.0/aws-lc/crypto/buf/buf.c"
	.section	.text.aws_lc_0_38_0_BUF_MEM_reserve,"ax",@progbits
	.globl	aws_lc_0_38_0_BUF_MEM_reserve
	.type	aws_lc_0_38_0_BUF_MEM_reserve, @function
aws_lc_0_38_0_BUF_MEM_reserve:
.LFB130:
	.loc 1 78 47
	.cfi_startproc
	pushq	%rbp
	.cfi_def_cfa_offset 16
	.cfi_offset 6, -16
	movq	%rsp, %rbp
	.cfi_def_cfa_register 6
	subq	$48, %rsp
	movq	%rdi, -40(%rbp)
	movq	%rsi, -48(%rbp)
	.loc 1 79 10
	movq	-40(%rbp), %rax
	movq	16(%rax), %rax
	.loc 1 79 6
	cmpq	-48(%rbp), %rax
	jb	.L14
	.loc 1 80 12
	movl	$1, %eax
	jmp	.L15
.L14:
	.loc 1 83 10
	movq	-48(%rbp), %rax
	addq	$3, %rax
	movq	%rax, -8(%rbp)
	.loc 1 84 6
	movq	-8(%rbp), %rax
	cmpq	-48(%rbp), %rax
	jnb	.L16
	.loc 1 85 5
	movl	$85, %r8d
	leaq	.LC0(%rip), %rax
	movq	%rax, %rcx
	movl	$69, %edx
	movl	$0, %esi
	movl	$7, %edi
	call	aws_lc_0_38_0_ERR_put_error@PLT
	.loc 1 86 12
	movl	$0, %eax
	jmp	.L15
.L16:
	.loc 1 88 5
	movq	-8(%rbp), %rax
	movabsq	$-6148914691236517205, %rdx
	mulq	%rdx
	movq	%rdx, %rax
	shrq	%rax
	movq	%rax, -8(%rbp)
	.loc 1 89 10
	movq	-8(%rbp), %rax
	salq	$2, %rax
	movq	%rax, -16(%rbp)
	.loc 1 90 18
	movq	-16(%rbp), %rax
	shrq	$2, %rax
	.loc 1 90 6
	cmpq	%rax, -8(%rbp)
	je	.L17
	.loc 1 91 5
	movl	$91, %r8d
	leaq	.LC0(%rip), %rax
	movq	%rax, %rcx
	movl	$69, %edx
	movl	$0, %esi
	movl	$7, %edi
	call	aws_lc_0_38_0_ERR_put_error@PLT
	.loc 1 92 12
	movl	$0, %eax
	jmp	.L15
.L17:
	.loc 1 95 38
	movq	-40(%rbp), %rax
	movq	8(%rax), %rax
	.loc 1 95 19
	movq	-16(%rbp), %rdx
	movq	%rdx, %rsi
	movq	%rax, %rdi
	call	aws_lc_0_38_0_OPENSSL_realloc@PLT
	movq	%rax, -24(%rbp)
	.loc 1 96 6
	cmpq	$0, -24(%rbp)
	jne	.L18
	.loc 1 97 12
	movl	$0, %eax
	jmp	.L15
.L18:
	.loc 1 100 13
	movq	-40(%rbp), %rax
	movq	-24(%rbp), %rdx
	movq	%rdx, 8(%rax)
	.loc 1 101 12
	movq	-40(%rbp), %rax
	movq	-16(%rbp), %rdx
	movq	%rdx, 16(%rax)
	.loc 1 102 10
	movl	$1, %eax
.L15:
	.loc 1 103 1
	leave
	.cfi_def_cfa 7, 8
	ret
	.cfi_endproc
.LFE130:
	.size	aws_lc_0_38_0_BUF_MEM_reserve, .-aws_lc_0_38_0_BUF_MEM_reserve
	.section	.text.aws_lc_0_38_0_BUF_MEM_grow,"ax",@progbits
	.globl	aws_lc_0_38_0_BUF_MEM_grow
	.type	aws_lc_0_38_0_BUF_MEM_grow, @function
aws_lc_0_38_0_BUF_MEM_grow:
.LFB131:
	.loc 1 105 47
	.cfi_startproc
	pushq	%rbp
	.cfi_def_cfa_offset 16
	.cfi_offset 6, -16
	movq	%rsp, %rbp
	.cfi_def_cfa_register 6
	subq	$16, %rsp
	movq	%rdi, -8(%rbp)
	movq	%rsi, -16(%rbp)
	.loc 1 106 8
	movq	-16(%rbp), %rdx
	movq	-8(%rbp), %rax
	movq	%rdx, %rsi
	movq	%rax, %rdi
	call	aws_lc_0_38_0_BUF_MEM_reserve@PLT
	.loc 1 106 6 discriminator 1
	testl	%eax, %eax
	jne	.L20
	.loc 1 107 12
	movl	$0, %eax
	jmp	.L21
.L20:
	.loc 1 109 10
	movq	-8(%rbp), %rax
	movq	(%rax), %rax
	.loc 1 109 6
	cmpq	-16(%rbp), %rax
	jnb	.L22
	.loc 1 110 57
	movq	-8(%rbp), %rax
	movq	(%rax), %rax
	.loc 1 110 5
	movq	-16(%rbp), %rdx
	subq	%rax, %rdx
	.loc 1 110 24
	movq	-8(%rbp), %rax
	movq	8(%rax), %rcx
	.loc 1 110 34
	movq	-8(%rbp), %rax
	movq	(%rax), %rax
	.loc 1 110 20
	addq	%rcx, %rax
	.loc 1 110 5
	movl	$0, %esi
	movq	%rax, %rdi
	call	OPENSSL_memset
.L22:
	.loc 1 112 15
	movq	-8(%rbp), %rax
	movq	-16(%rbp), %rdx
	movq	%rdx, (%rax)
	.loc 1 113 10
	movq	-16(%rbp), %rax
.L21:
	.loc 1 114 1
	leave
	.cfi_def_cfa 7, 8
	ret
	.cfi_endproc
.LFE131:
	.size	aws_lc_0_38_0_BUF_MEM_grow, .-aws_lc_0_38_0_BUF_MEM_grow
	.section	.text.aws_lc_0_38_0_BUF_MEM_grow_clean,"ax",@progbits
	.globl	aws_lc_0_38_0_BUF_MEM_grow_clean
	.type	aws_lc_0_38_0_BUF_MEM_grow_clean, @function
aws_lc_0_38_0_BUF_MEM_grow_clean:
.LFB132:
	.loc 1 116 53
	.cfi_startproc
	pushq	%rbp
	.cfi_def_cfa_offset 16
	.cfi_offset 6, -16
	movq	%rsp, %rbp
	.cfi_def_cfa_register 6
	subq	$16, %rsp
	movq	%rdi, -8(%rbp)
	movq	%rsi, -16(%rbp)
	.loc 1 117 10
	movq	-16(%rbp), %rdx
	movq	-8(%rbp), %rax
	movq	%rdx, %rsi
	movq	%rax, %rdi
	call	aws_lc_0_38_0_BUF_MEM_grow@PLT
	.loc 1 118 1
	leave
	.cfi_def_cfa 7, 8
	ret
	.cfi_endproc
.LFE132:
	.size	aws_lc_0_38_0_BUF_MEM_grow_clean, .-aws_lc_0_38_0_BUF_MEM_grow_clean
	.section	.text.aws_lc_0_38_0_BUF_MEM_append,"ax",@progbits
	.globl	aws_lc_0_38_0_BUF_MEM_append
	.type	aws_lc_0_38_0_BUF_MEM_append, @function
aws_lc_0_38_0_BUF_MEM_append:
.LFB133:
	.loc 1 120 62
	.cfi_startproc
	pushq	%rbp
	.cfi_def_cfa_offset 16
	.cfi_offset 6, -16
	movq	%rsp, %rbp
	.cfi_def_cfa_register 6
	subq	$48, %rsp
	movq	%rdi, -24(%rbp)
	movq	%rsi, -32(%rbp)
	movq	%rdx, -40(%rbp)
	.loc 1 122 6
	cmpq	$0, -40(%rbp)
	jne	.L26
	.loc 1 123 12
	movl	$1, %eax
	jmp	.L27
.L26:
	.loc 1 125 23
	movq	-24(%rbp), %rax
	movq	(%rax), %rdx
	.loc 1 125 10
	movq	-40(%rbp), %rax
	addq	%rdx, %rax
	movq	%rax, -8(%rbp)
	.loc 1 126 6
	movq	-8(%rbp), %rax
	cmpq	-40(%rbp), %rax
	jnb	.L28
	.loc 1 127 5
	movl	$127, %r8d
	leaq	.LC0(%rip), %rax
	movq	%rax, %rcx
	movl	$69, %edx
	movl	$0, %esi
	movl	$7, %edi
	call	aws_lc_0_38_0_ERR_put_error@PLT
	.loc 1 128 12
	movl	$0, %eax
	jmp	.L27
.L28:
	.loc 1 130 8
	movq	-8(%rbp), %rdx
	movq	-24(%rbp), %rax
	movq	%rdx, %rsi
	movq	%rax, %rdi
	call	aws_lc_0_38_0_BUF_MEM_reserve@PLT
	.loc 1 130 6 discriminator 1
	testl	%eax, %eax
	jne	.L29
	.loc 1 131 12
	movl	$0, %eax
	jmp	.L27
.L29:
	.loc 1 133 21
	movq	-24(%rbp), %rax
	movq	8(%rax), %rdx
	.loc 1 133 33
	movq	-24(%rbp), %rax
	movq	(%rax), %rax
	.loc 1 133 28
	leaq	(%rdx,%rax), %rcx
	.loc 1 133 3
	movq	-40(%rbp), %rdx
	movq	-32(%rbp), %rax
	movq	%rax, %rsi
	movq	%rcx, %rdi
	call	OPENSSL_memcpy
	.loc 1 134 15
	movq	-24(%rbp), %rax
	movq	-8(%rbp), %rdx
	movq	%rdx, (%rax)
	.loc 1 135 10
	movl	$1, %eax
.L27:
	.loc 1 136 1
	leave
	.cfi_def_cfa 7, 8
	ret
	.cfi_endproc
.LFE133:
	.size	aws_lc_0_38_0_BUF_MEM_append, .-aws_lc_0_38_0_BUF_MEM_append
	.section	.text.aws_lc_0_38_0_BUF_strdup,"ax",@progbits
	.globl	aws_lc_0_38_0_BUF_strdup
	.type	aws_lc_0_38_0_BUF_strdup, @function
aws_lc_0_38_0_BUF_strdup:
.LFB134:
	.loc 1 138 35
	.cfi_startproc
	pushq	%rbp
	.cfi_def_cfa_offset 16
	.cfi_offset 6, -16
	movq	%rsp, %rbp
	.cfi_def_cfa_register 6
	subq	$16, %rsp
	movq	%rdi, -8(%rbp)
	.loc 1 138 44
	movq	-8(%rbp), %rax
	movq	%rax, %rdi
	call	aws_lc_0_38_0_OPENSSL_strdup@PLT
	.loc 1 138 65
	leave
	.cfi_def_cfa 7, 8
	ret
	.cfi_endproc
.LFE134:
	.size	aws_lc_0_38_0_BUF_strdup, .-aws_lc_0_38_0_BUF_strdup
	.section	.text.aws_lc_0_38_0_BUF_strnlen,"ax",@progbits
	.globl	aws_lc_0_38_0_BUF_strnlen
	.type	aws_lc_0_38_0_BUF_strnlen, @function
aws_lc_0_38_0_BUF_strnlen:
.LFB135:
	.loc 1 140 53
	.cfi_startproc
	pushq	%rbp
	.cfi_def_cfa_offset 16
	.cfi_offset 6, -16
	movq	%rsp, %rbp
	.cfi_def_cfa_register 6
	subq	$16, %rsp
	movq	%rdi, -8(%rbp)
	movq	%rsi, -16(%rbp)
	.loc 1 141 10
	movq	-16(%rbp), %rdx
	movq	-8(%rbp), %rax
	movq	%rdx, %rsi
	movq	%rax, %rdi
	call	aws_lc_0_38_0_OPENSSL_strnlen@PLT
	.loc 1 142 1
	leave
	.cfi_def_cfa 7, 8
	ret
	.cfi_endproc
.LFE135:
	.size	aws_lc_0_38_0_BUF_strnlen, .-aws_lc_0_38_0_BUF_strnlen
	.section	.text.aws_lc_0_38_0_BUF_strndup,"ax",@progbits
	.globl	aws_lc_0_38_0_BUF_strndup
	.type	aws_lc_0_38_0_BUF_strndup, @function
aws_lc_0_38_0_BUF_strndup:
.LFB136:
	.loc 1 144 49
	.cfi_startproc
	pushq	%rbp
	.cfi_def_cfa_offset 16
	.cfi_offset 6, -16
	movq	%rsp, %rbp
	.cfi_def_cfa_register 6
	subq	$16, %rsp
	movq	%rdi, -8(%rbp)
	movq	%rsi, -16(%rbp)
	.loc 1 145 10
	movq	-16(%rbp), %rdx
	movq	-8(%rbp), %rax
	movq	%rdx, %rsi
	movq	%rax, %rdi
	call	aws_lc_0_38_0_OPENSSL_strndup@PLT
	.loc 1 146 1
	leave
	.cfi_def_cfa 7, 8
	ret
	.cfi_endproc
.LFE136:
	.size	aws_lc_0_38_0_BUF_strndup, .-aws_lc_0_38_0_BUF_strndup
	.section	.text.aws_lc_0_38_0_BUF_strlcpy,"ax",@progbits
	.globl	aws_lc_0_38_0_BUF_strlcpy
	.type	aws_lc_0_38_0_BUF_strlcpy, @function
aws_lc_0_38_0_BUF_strlcpy:
.LFB137:
	.loc 1 148 65
	.cfi_startproc
	pushq	%rbp
	.cfi_def_cfa_offset 16
	.cfi_offset 6, -16
	movq	%rsp, %rbp
	.cfi_def_cfa_register 6
	subq	$32, %rsp
	movq	%rdi, -8(%rbp)
	movq	%rsi, -16(%rbp)
	movq	%rdx, -24(%rbp)
	.loc 1 149 10
	movq	-24(%rbp), %rdx
	movq	-16(%rbp), %rcx
	movq	-8(%rbp), %rax
	movq	%rcx, %rsi
	movq	%rax, %rdi
	call	aws_lc_0_38_0_OPENSSL_strlcpy@PLT
	.loc 1 150 1
	leave
	.cfi_def_cfa 7, 8
	ret
	.cfi_endproc
.LFE137:
	.size	aws_lc_0_38_0_BUF_strlcpy, .-aws_lc_0_38_0_BUF_strlcpy
	.section	.text.aws_lc_0_38_0_BUF_strlcat,"ax",@progbits
	.globl	aws_lc_0_38_0_BUF_strlcat
	.type	aws_lc_0_38_0_BUF_strlcat, @function
aws_lc_0_38_0_BUF_strlcat:
.LFB138:
	.loc 1 152 65
	.cfi_startproc
	pushq	%rbp
	.cfi_def_cfa_offset 16
	.cfi_offset 6, -16
	movq	%rsp, %rbp
	.cfi_def_cfa_register 6
	subq	$32, %rsp
	movq	%rdi, -8(%rbp)
	movq	%rsi, -16(%rbp)
	movq	%rdx, -24(%rbp)
	.loc 1 153 10
	movq	-24(%rbp), %rdx
	movq	-16(%rbp), %rcx
	movq	-8(%rbp), %rax
	movq	%rcx, %rsi
	movq	%rax, %rdi
	call	aws_lc_0_38_0_OPENSSL_strlcat@PLT
	.loc 1 154 1
	leave
	.cfi_def_cfa 7, 8
	ret
	.cfi_endproc
.LFE138:
	.size	aws_lc_0_38_0_BUF_strlcat, .-aws_lc_0_38_0_BUF_strlcat
	.section	.text.aws_lc_0_38_0_BUF_memdup,"ax",@progbits
	.globl	aws_lc_0_38_0_BUF_memdup
	.type	aws_lc_0_38_0_BUF_memdup, @function
aws_lc_0_38_0_BUF_memdup:
.LFB139:
	.loc 1 156 49
	.cfi_startproc
	pushq	%rbp
	.cfi_def_cfa_offset 16
	.cfi_offset 6, -16
	movq	%rsp, %rbp
	.cfi_def_cfa_register 6
	subq	$16, %rsp
	movq	%rdi, -8(%rbp)
	movq	%rsi, -16(%rbp)
	.loc 1 157 10
	movq	-16(%rbp), %rdx
	movq	-8(%rbp), %rax
	movq	%rdx, %rsi
	movq	%rax, %rdi
	call	aws_lc_0_38_0_OPENSSL_memdup@PLT
	.loc 1 158 1
	leave
	.cfi_def_cfa 7, 8
	ret
	.cfi_endproc
.LFE139:
	.size	aws_lc_0_38_0_BUF_memdup, .-aws_lc_0_38_0_BUF_memdup
	.text
.Letext0:
	.file 3 "/usr/lib/gcc/x86_64-redhat-linux/14/include/stddef.h"
	.file 4 "/home/unnamed/.cargo/registry/src/index.crates.io-1949cf8c6b5b557f/aws-lc-sys-0.38.0/aws-lc/include/openssl/base.h"
	.file 5 "/home/unnamed/.cargo/registry/src/index.crates.io-1949cf8c6b5b557f/aws-lc-sys-0.38.0/aws-lc/include/openssl/buf.h"
	.file 6 "/home/unnamed/.cargo/registry/src/index.crates.io-1949cf8c6b5b557f/aws-lc-sys-0.38.0/aws-lc/include/openssl/mem.h"
	.file 7 "/usr/include/string.h"
	.file 8 "/home/unnamed/.cargo/registry/src/index.crates.io-1949cf8c6b5b557f/aws-lc-sys-0.38.0/aws-lc/include/openssl/err.h"
	.section	.note.GNU-stack,"",@progbits
