	.file	"e_aesctrhmac.c"
	.text
.Ltext0:
	.file 1 "/home/unnamed/.cargo/registry/src/index.crates.io-1949cf8c6b5b557f/aws-lc-sys-0.38.0/aws-lc/crypto/cipher_extra/e_aesctrhmac.c"
	.section	.text.OPENSSL_memcpy,"ax",@progbits
	.type	OPENSSL_memcpy, @function
OPENSSL_memcpy:
.LFB94:
	.file 2 "/home/unnamed/.cargo/registry/src/index.crates.io-1949cf8c6b5b557f/aws-lc-sys-0.38.0/aws-lc/crypto/cipher_extra/../fipsmodule/cipher/../../internal.h"
	.loc 2 956 74
	.cfi_startproc
	pushq	%rbp
	.cfi_def_cfa_offset 16
	.cfi_offset 6, -16
	movq	%rsp, %rbp
	.cfi_def_cfa_register 6
	subq	$32, %rsp
	movq	%rdi, -8(%rbp)
	movq	%rsi, -16(%rbp)
	movq	%rdx, -24(%rbp)
	.loc 2 957 6
	cmpq	$0, -24(%rbp)
	jne	.L2
	.loc 2 958 12
	movq	-8(%rbp), %rax
	jmp	.L3
.L2:
	.loc 2 961 10
	movq	-24(%rbp), %rdx
	movq	-16(%rbp), %rcx
	movq	-8(%rbp), %rax
	movq	%rcx, %rsi
	movq	%rax, %rdi
	call	memcpy@PLT
.L3:
	.loc 2 962 1
	leave
	.cfi_def_cfa 7, 8
	ret
	.cfi_endproc
.LFE94:
	.size	OPENSSL_memcpy, .-OPENSSL_memcpy
	.section	.text.OPENSSL_memset,"ax",@progbits
	.type	OPENSSL_memset, @function
OPENSSL_memset:
.LFB96:
	.loc 2 972 64
	.cfi_startproc
	pushq	%rbp
	.cfi_def_cfa_offset 16
	.cfi_offset 6, -16
	movq	%rsp, %rbp
	.cfi_def_cfa_register 6
	subq	$32, %rsp
	movq	%rdi, -8(%rbp)
	movl	%esi, -12(%rbp)
	movq	%rdx, -24(%rbp)
	.loc 2 973 6
	cmpq	$0, -24(%rbp)
	jne	.L5
	.loc 2 974 12
	movq	-8(%rbp), %rax
	jmp	.L6
.L5:
	.loc 2 977 10
	movq	-24(%rbp), %rdx
	movl	-12(%rbp), %ecx
	movq	-8(%rbp), %rax
	movl	%ecx, %esi
	movq	%rax, %rdi
	call	memset@PLT
.L6:
	.loc 2 978 1
	leave
	.cfi_def_cfa 7, 8
	ret
	.cfi_endproc
.LFE96:
	.size	OPENSSL_memset, .-OPENSSL_memset
	.section	.text.hmac_init,"ax",@progbits
	.type	hmac_init, @function
hmac_init:
.LFB151:
	.loc 1 46 51
	.cfi_startproc
	pushq	%rbp
	.cfi_def_cfa_offset 16
	.cfi_offset 6, -16
	movq	%rsp, %rbp
	.cfi_def_cfa_register 6
	subq	$112, %rsp
	movq	%rdi, -88(%rbp)
	movq	%rsi, -96(%rbp)
	movq	%rdx, -104(%rbp)
	.loc 1 49 3
	movq	hmac_key_len.1(%rip), %rdx
	movq	-104(%rbp), %rcx
	leaq	-80(%rbp), %rax
	movq	%rcx, %rsi
	movq	%rax, %rdi
	call	OPENSSL_memcpy
	.loc 1 50 3
	movq	hmac_key_len.1(%rip), %rax
	movl	$64, %edx
	subq	%rax, %rdx
	movq	hmac_key_len.1(%rip), %rax
	leaq	-80(%rbp), %rcx
	addq	%rcx, %rax
	movl	$54, %esi
	movq	%rax, %rdi
	call	OPENSSL_memset
	.loc 1 53 10
	movl	$0, -4(%rbp)
	.loc 1 53 3
	jmp	.L8
.L9:
	.loc 1 54 10
	movl	-4(%rbp), %eax
	movzbl	-80(%rbp,%rax), %eax
	.loc 1 54 14
	xorl	$54, %eax
	movl	%eax, %edx
	movl	-4(%rbp), %eax
	movb	%dl, -80(%rbp,%rax)
	.loc 1 53 34 discriminator 3
	addl	$1, -4(%rbp)
.L8:
	.loc 1 53 17 discriminator 1
	movl	-4(%rbp), %edx
	movq	hmac_key_len.1(%rip), %rax
	cmpq	%rax, %rdx
	jb	.L9
	.loc 1 57 3
	movq	-88(%rbp), %rax
	movq	%rax, %rdi
	call	aws_lc_0_38_0_SHA256_Init@PLT
	.loc 1 58 3
	leaq	-80(%rbp), %rcx
	movq	-88(%rbp), %rax
	movl	$64, %edx
	movq	%rcx, %rsi
	movq	%rax, %rdi
	call	aws_lc_0_38_0_SHA256_Update@PLT
	.loc 1 60 3
	movq	hmac_key_len.1(%rip), %rax
	movl	$64, %edx
	subq	%rax, %rdx
	movq	hmac_key_len.1(%rip), %rax
	leaq	-80(%rbp), %rcx
	addq	%rcx, %rax
	movl	$92, %esi
	movq	%rax, %rdi
	call	OPENSSL_memset
	.loc 1 61 10
	movl	$0, -4(%rbp)
	.loc 1 61 3
	jmp	.L10
.L11:
	.loc 1 62 10
	movl	-4(%rbp), %eax
	movzbl	-80(%rbp,%rax), %eax
	.loc 1 62 14
	xorl	$106, %eax
	movl	%eax, %edx
	movl	-4(%rbp), %eax
	movb	%dl, -80(%rbp,%rax)
	.loc 1 61 34 discriminator 3
	addl	$1, -4(%rbp)
.L10:
	.loc 1 61 17 discriminator 1
	movl	-4(%rbp), %edx
	movq	hmac_key_len.1(%rip), %rax
	cmpq	%rax, %rdx
	jb	.L11
	.loc 1 65 3
	movq	-96(%rbp), %rax
	movq	%rax, %rdi
	call	aws_lc_0_38_0_SHA256_Init@PLT
	.loc 1 66 3
	leaq	-80(%rbp), %rcx
	movq	-96(%rbp), %rax
	movl	$64, %edx
	movq	%rcx, %rsi
	movq	%rax, %rdi
	call	aws_lc_0_38_0_SHA256_Update@PLT
	.loc 1 67 1
	nop
	leave
	.cfi_def_cfa 7, 8
	ret
	.cfi_endproc
.LFE151:
	.size	hmac_init, .-hmac_init
	.section	.rodata
	.align 8
.LC0:
	.string	"/home/unnamed/.cargo/registry/src/index.crates.io-1949cf8c6b5b557f/aws-lc-sys-0.38.0/aws-lc/crypto/cipher_extra/e_aesctrhmac.c"
	.section	.text.aead_aes_ctr_hmac_sha256_init,"ax",@progbits
	.type	aead_aes_ctr_hmac_sha256_init, @function
aead_aes_ctr_hmac_sha256_init:
.LFB152:
	.loc 1 70 74
	.cfi_startproc
	pushq	%rbp
	.cfi_def_cfa_offset 16
	.cfi_offset 6, -16
	movq	%rsp, %rbp
	.cfi_def_cfa_register 6
	subq	$48, %rsp
	movq	%rdi, -24(%rbp)
	movq	%rsi, -32(%rbp)
	movq	%rdx, -40(%rbp)
	movq	%rcx, -48(%rbp)
	.loc 1 71 40
	movq	-24(%rbp), %rax
	addq	$8, %rax
	movq	%rax, -8(%rbp)
	.loc 1 75 15
	movq	hmac_key_len.0(%rip), %rax
	.loc 1 75 6
	cmpq	%rax, -40(%rbp)
	jnb	.L13
	.loc 1 76 5
	movl	$76, %r8d
	leaq	.LC0(%rip), %rax
	movq	%rax, %rcx
	movl	$102, %edx
	movl	$0, %esi
	movl	$30, %edi
	call	aws_lc_0_38_0_ERR_put_error@PLT
	.loc 1 77 12
	movl	$0, %eax
	jmp	.L14
.L13:
	.loc 1 80 38
	movq	hmac_key_len.0(%rip), %rax
	.loc 1 80 16
	movq	-40(%rbp), %rdx
	subq	%rax, %rdx
	movq	%rdx, -16(%rbp)
	.loc 1 81 6
	cmpq	$16, -16(%rbp)
	je	.L15
	.loc 1 81 25 discriminator 1
	cmpq	$32, -16(%rbp)
	je	.L15
	.loc 1 82 5
	movl	$82, %r8d
	leaq	.LC0(%rip), %rax
	movq	%rax, %rcx
	movl	$102, %edx
	movl	$0, %esi
	movl	$30, %edi
	call	aws_lc_0_38_0_ERR_put_error@PLT
	.loc 1 83 12
	movl	$0, %eax
	jmp	.L14
.L15:
	.loc 1 86 6
	cmpq	$0, -48(%rbp)
	jne	.L16
	.loc 1 87 13
	movq	$32, -48(%rbp)
.L16:
	.loc 1 90 6
	cmpq	$32, -48(%rbp)
	jbe	.L17
	.loc 1 91 5
	movl	$91, %r8d
	leaq	.LC0(%rip), %rax
	movq	%rax, %rcx
	movl	$116, %edx
	movl	$0, %esi
	movl	$30, %edi
	call	aws_lc_0_38_0_ERR_put_error@PLT
	.loc 1 92 12
	movl	$0, %eax
	jmp	.L14
.L17:
	.loc 1 96 7
	movq	-8(%rbp), %rax
	leaq	256(%rax), %rsi
	movq	-8(%rbp), %rax
	movq	-16(%rbp), %rcx
	movq	-32(%rbp), %rdx
	movq	%rcx, %r8
	movq	%rdx, %rcx
	movq	%rsi, %rdx
	movl	$0, %esi
	movq	%rax, %rdi
	call	aws_lc_0_38_0_aes_ctr_set_key@PLT
	.loc 1 95 16
	movq	-8(%rbp), %rdx
	movq	%rax, 248(%rdx)
	.loc 1 97 16
	movq	-48(%rbp), %rax
	movl	%eax, %edx
	movq	-24(%rbp), %rax
	movb	%dl, 577(%rax)
	.loc 1 98 3
	movq	-32(%rbp), %rdx
	movq	-16(%rbp), %rax
	addq	%rax, %rdx
	movq	-8(%rbp), %rax
	leaq	376(%rax), %rcx
	movq	-8(%rbp), %rax
	addq	$264, %rax
	movq	%rcx, %rsi
	movq	%rax, %rdi
	call	hmac_init
	.loc 1 101 10
	movl	$1, %eax
.L14:
	.loc 1 102 1
	leave
	.cfi_def_cfa 7, 8
	ret
	.cfi_endproc
.LFE152:
	.size	aead_aes_ctr_hmac_sha256_init, .-aead_aes_ctr_hmac_sha256_init
	.section	.text.aead_aes_ctr_hmac_sha256_cleanup,"ax",@progbits
	.type	aead_aes_ctr_hmac_sha256_cleanup, @function
aead_aes_ctr_hmac_sha256_cleanup:
.LFB153:
	.loc 1 104 65
	.cfi_startproc
	pushq	%rbp
	.cfi_def_cfa_offset 16
	.cfi_offset 6, -16
	movq	%rsp, %rbp
	.cfi_def_cfa_register 6
	movq	%rdi, -8(%rbp)
	.loc 1 104 66
	nop
	popq	%rbp
	.cfi_def_cfa 7, 8
	ret
	.cfi_endproc
.LFE153:
	.size	aead_aes_ctr_hmac_sha256_cleanup, .-aead_aes_ctr_hmac_sha256_cleanup
	.section	.text.hmac_update_uint64,"ax",@progbits
	.type	hmac_update_uint64, @function
hmac_update_uint64:
.LFB154:
	.loc 1 106 68
	.cfi_startproc
	pushq	%rbp
	.cfi_def_cfa_offset 16
	.cfi_offset 6, -16
	movq	%rsp, %rbp
	.cfi_def_cfa_register 6
	subq	$32, %rsp
	movq	%rdi, -24(%rbp)
	movq	%rsi, -32(%rbp)
	.loc 1 110 10
	movl	$0, -4(%rbp)
	.loc 1 110 3
	jmp	.L20
.L21:
	.loc 1 111 14
	movq	-32(%rbp), %rax
	movl	%eax, %edx
	movl	-4(%rbp), %eax
	movb	%dl, -12(%rbp,%rax)
	.loc 1 112 11
	shrq	$8, -32(%rbp)
	.loc 1 110 35 discriminator 3
	addl	$1, -4(%rbp)
.L20:
	.loc 1 110 17 discriminator 1
	cmpl	$7, -4(%rbp)
	jbe	.L21
	.loc 1 114 3
	leaq	-12(%rbp), %rcx
	movq	-24(%rbp), %rax
	movl	$8, %edx
	movq	%rcx, %rsi
	movq	%rax, %rdi
	call	aws_lc_0_38_0_SHA256_Update@PLT
	.loc 1 115 1
	nop
	leave
	.cfi_def_cfa 7, 8
	ret
	.cfi_endproc
.LFE154:
	.size	hmac_update_uint64, .-hmac_update_uint64
	.section	.text.hmac_calculate,"ax",@progbits
	.type	hmac_calculate, @function
hmac_calculate:
.LFB155:
	.loc 1 122 51
	.cfi_startproc
	pushq	%rbp
	.cfi_def_cfa_offset 16
	.cfi_offset 6, -16
	movq	%rsp, %rbp
	.cfi_def_cfa_register 6
	subq	$272, %rsp
	movq	%rdi, -232(%rbp)
	movq	%rsi, -240(%rbp)
	movq	%rdx, -248(%rbp)
	movq	%rcx, -256(%rbp)
	movq	%r8, -264(%rbp)
	movq	%r9, -272(%rbp)
	.loc 1 124 3
	movq	-240(%rbp), %rcx
	leaq	-128(%rbp), %rax
	movl	$112, %edx
	movq	%rcx, %rsi
	movq	%rax, %rdi
	call	OPENSSL_memcpy
	.loc 1 125 3
	movq	-264(%rbp), %rdx
	leaq	-128(%rbp), %rax
	movq	%rdx, %rsi
	movq	%rax, %rdi
	call	hmac_update_uint64
	.loc 1 126 3
	movq	24(%rbp), %rdx
	leaq	-128(%rbp), %rax
	movq	%rdx, %rsi
	movq	%rax, %rdi
	call	hmac_update_uint64
	.loc 1 127 3
	movq	-272(%rbp), %rcx
	leaq	-128(%rbp), %rax
	movl	$12, %edx
	movq	%rcx, %rsi
	movq	%rax, %rdi
	call	aws_lc_0_38_0_SHA256_Update@PLT
	.loc 1 128 3
	movq	-264(%rbp), %rdx
	movq	-256(%rbp), %rcx
	leaq	-128(%rbp), %rax
	movq	%rcx, %rsi
	movq	%rax, %rdi
	call	aws_lc_0_38_0_SHA256_Update@PLT
	.loc 1 134 41
	movq	-264(%rbp), %rax
	movl	%eax, %edx
	movl	$-28, %eax
	subl	%edx, %eax
	.loc 1 131 18
	andl	$63, %eax
	movl	%eax, -4(%rbp)
	.loc 1 137 3
	movl	-4(%rbp), %edx
	leaq	-192(%rbp), %rax
	movl	$0, %esi
	movq	%rax, %rdi
	call	OPENSSL_memset
	.loc 1 138 3
	movl	-4(%rbp), %edx
	leaq	-192(%rbp), %rcx
	leaq	-128(%rbp), %rax
	movq	%rcx, %rsi
	movq	%rax, %rdi
	call	aws_lc_0_38_0_SHA256_Update@PLT
	.loc 1 140 3
	movq	24(%rbp), %rdx
	movq	16(%rbp), %rcx
	leaq	-128(%rbp), %rax
	movq	%rcx, %rsi
	movq	%rax, %rdi
	call	aws_lc_0_38_0_SHA256_Update@PLT
	.loc 1 143 3
	leaq	-128(%rbp), %rdx
	leaq	-224(%rbp), %rax
	movq	%rdx, %rsi
	movq	%rax, %rdi
	call	aws_lc_0_38_0_SHA256_Final@PLT
	.loc 1 145 3
	movq	-248(%rbp), %rcx
	leaq	-128(%rbp), %rax
	movl	$112, %edx
	movq	%rcx, %rsi
	movq	%rax, %rdi
	call	OPENSSL_memcpy
	.loc 1 146 3
	leaq	-224(%rbp), %rcx
	leaq	-128(%rbp), %rax
	movl	$32, %edx
	movq	%rcx, %rsi
	movq	%rax, %rdi
	call	aws_lc_0_38_0_SHA256_Update@PLT
	.loc 1 147 3
	leaq	-128(%rbp), %rdx
	movq	-232(%rbp), %rax
	movq	%rdx, %rsi
	movq	%rax, %rdi
	call	aws_lc_0_38_0_SHA256_Final@PLT
	.loc 1 148 1
	nop
	leave
	.cfi_def_cfa 7, 8
	ret
	.cfi_endproc
.LFE155:
	.size	hmac_calculate, .-hmac_calculate
	.section	.text.aead_aes_ctr_hmac_sha256_crypt,"ax",@progbits
	.type	aead_aes_ctr_hmac_sha256_crypt, @function
aead_aes_ctr_hmac_sha256_crypt:
.LFB156:
	.loc 1 152 58
	.cfi_startproc
	pushq	%rbp
	.cfi_def_cfa_offset 16
	.cfi_offset 6, -16
	movq	%rsp, %rbp
	.cfi_def_cfa_register 6
	subq	$96, %rsp
	movq	%rdi, -56(%rbp)
	movq	%rsi, -64(%rbp)
	movq	%rdx, -72(%rbp)
	movq	%rcx, -80(%rbp)
	movq	%r8, -88(%rbp)
	.loc 1 156 12
	movl	$0, -20(%rbp)
	.loc 1 157 3
	leaq	-16(%rbp), %rax
	movl	$16, %edx
	movl	$0, %esi
	movq	%rax, %rdi
	call	OPENSSL_memset
	.loc 1 160 3
	movq	-88(%rbp), %rcx
	leaq	-48(%rbp), %rax
	movl	$12, %edx
	movq	%rcx, %rsi
	movq	%rax, %rdi
	call	OPENSSL_memcpy
	.loc 1 161 3
	leaq	-48(%rbp), %rax
	addq	$12, %rax
	movl	$4, %edx
	movl	$0, %esi
	movq	%rax, %rdi
	call	OPENSSL_memset
	.loc 1 163 14
	movq	-56(%rbp), %rax
	movq	248(%rax), %rax
	.loc 1 163 6
	testq	%rax, %rax
	je	.L24
	.loc 1 166 40
	movq	-56(%rbp), %rax
	movq	248(%rax), %rdi
	.loc 1 164 5
	movq	-56(%rbp), %rcx
	leaq	-16(%rbp), %r9
	leaq	-48(%rbp), %r8
	movq	-80(%rbp), %rdx
	movq	-64(%rbp), %rsi
	movq	-72(%rbp), %rax
	pushq	%rdi
	leaq	-20(%rbp), %rdi
	pushq	%rdi
	movq	%rax, %rdi
	call	aws_lc_0_38_0_CRYPTO_ctr128_encrypt_ctr32@PLT
	addq	$16, %rsp
	.loc 1 172 1
	jmp	.L26
.L24:
	.loc 1 170 34
	movq	-56(%rbp), %rax
	movq	256(%rax), %rdi
	.loc 1 168 5
	movq	-56(%rbp), %rcx
	leaq	-16(%rbp), %r9
	leaq	-48(%rbp), %r8
	movq	-80(%rbp), %rdx
	movq	-64(%rbp), %rsi
	movq	-72(%rbp), %rax
	pushq	%rdi
	leaq	-20(%rbp), %rdi
	pushq	%rdi
	movq	%rax, %rdi
	call	aws_lc_0_38_0_CRYPTO_ctr128_encrypt@PLT
	addq	$16, %rsp
.L26:
	.loc 1 172 1
	nop
	leave
	.cfi_def_cfa 7, 8
	ret
	.cfi_endproc
.LFE156:
	.size	aead_aes_ctr_hmac_sha256_crypt, .-aead_aes_ctr_hmac_sha256_crypt
	.section	.text.aead_aes_ctr_hmac_sha256_seal_scatter,"ax",@progbits
	.type	aead_aes_ctr_hmac_sha256_seal_scatter, @function
aead_aes_ctr_hmac_sha256_seal_scatter:
.LFB157:
	.loc 1 178 60
	.cfi_startproc
	pushq	%rbp
	.cfi_def_cfa_offset 16
	.cfi_offset 6, -16
	movq	%rsp, %rbp
	.cfi_def_cfa_register 6
	subq	$96, %rsp
	movq	%rdi, -56(%rbp)
	movq	%rsi, -64(%rbp)
	movq	%rdx, -72(%rbp)
	movq	%rcx, -80(%rbp)
	movq	%r8, -88(%rbp)
	movq	%r9, -96(%rbp)
	.loc 1 179 46
	movq	-56(%rbp), %rax
	addq	$8, %rax
	movq	%rax, -8(%rbp)
	.loc 1 181 18
	movq	32(%rbp), %rax
	movq	%rax, -16(%rbp)
	.loc 1 183 6
	movabsq	$68719476735, %rax
	cmpq	-16(%rbp), %rax
	jnb	.L28
	.loc 1 185 5
	movl	$185, %r8d
	leaq	.LC0(%rip), %rax
	movq	%rax, %rcx
	movl	$117, %edx
	movl	$0, %esi
	movl	$30, %edi
	call	aws_lc_0_38_0_ERR_put_error@PLT
	.loc 1 186 12
	movl	$0, %eax
	jmp	.L32
.L28:
	.loc 1 189 28
	movq	-56(%rbp), %rax
	movzbl	577(%rax), %eax
	movzbl	%al, %eax
	.loc 1 189 6
	cmpq	%rax, -88(%rbp)
	jnb	.L30
	.loc 1 190 5
	movl	$190, %r8d
	leaq	.LC0(%rip), %rax
	movq	%rax, %rcx
	movl	$103, %edx
	movl	$0, %esi
	movl	$30, %edi
	call	aws_lc_0_38_0_ERR_put_error@PLT
	.loc 1 191 12
	movl	$0, %eax
	jmp	.L32
.L30:
	.loc 1 194 6
	cmpq	$12, 16(%rbp)
	je	.L31
	.loc 1 195 5
	movl	$195, %r8d
	leaq	.LC0(%rip), %rax
	movq	%rax, %rcx
	movl	$121, %edx
	movl	$0, %esi
	movl	$30, %edi
	call	aws_lc_0_38_0_ERR_put_error@PLT
	.loc 1 196 12
	movl	$0, %eax
	jmp	.L32
.L31:
	.loc 1 199 3
	movq	-96(%rbp), %rdi
	movq	32(%rbp), %rcx
	movq	24(%rbp), %rdx
	movq	-64(%rbp), %rsi
	movq	-8(%rbp), %rax
	movq	%rdi, %r8
	movq	%rax, %rdi
	call	aead_aes_ctr_hmac_sha256_crypt
	.loc 1 202 3
	movq	-8(%rbp), %rax
	leaq	376(%rax), %rdi
	movq	-8(%rbp), %rax
	leaq	264(%rax), %rsi
	movq	-96(%rbp), %r8
	movq	64(%rbp), %rcx
	movq	56(%rbp), %rdx
	leaq	-48(%rbp), %rax
	pushq	32(%rbp)
	pushq	-64(%rbp)
	movq	%r8, %r9
	movq	%rcx, %r8
	movq	%rdx, %rcx
	movq	%rdi, %rdx
	movq	%rax, %rdi
	call	hmac_calculate
	addq	$16, %rsp
	.loc 1 204 43
	movq	-56(%rbp), %rax
	movzbl	577(%rax), %eax
	.loc 1 204 3
	movzbl	%al, %edx
	leaq	-48(%rbp), %rcx
	movq	-72(%rbp), %rax
	movq	%rcx, %rsi
	movq	%rax, %rdi
	call	OPENSSL_memcpy
	.loc 1 205 21
	movq	-56(%rbp), %rax
	movzbl	577(%rax), %eax
	movzbl	%al, %edx
	.loc 1 205 16
	movq	-80(%rbp), %rax
	movq	%rdx, (%rax)
	.loc 1 207 10
	movl	$1, %eax
.L32:
	.loc 1 208 1
	leave
	.cfi_def_cfa 7, 8
	ret
	.cfi_endproc
.LFE157:
	.size	aead_aes_ctr_hmac_sha256_seal_scatter, .-aead_aes_ctr_hmac_sha256_seal_scatter
	.section	.text.aead_aes_ctr_hmac_sha256_open_gather,"ax",@progbits
	.type	aead_aes_ctr_hmac_sha256_open_gather, @function
aead_aes_ctr_hmac_sha256_open_gather:
.LFB158:
	.loc 1 213 58
	.cfi_startproc
	pushq	%rbp
	.cfi_def_cfa_offset 16
	.cfi_offset 6, -16
	movq	%rsp, %rbp
	.cfi_def_cfa_register 6
	subq	$96, %rsp
	movq	%rdi, -56(%rbp)
	movq	%rsi, -64(%rbp)
	movq	%rdx, -72(%rbp)
	movq	%rcx, -80(%rbp)
	movq	%r8, -88(%rbp)
	movq	%r9, -96(%rbp)
	.loc 1 214 46
	movq	-56(%rbp), %rax
	addq	$8, %rax
	movq	%rax, -8(%rbp)
	.loc 1 217 24
	movq	-56(%rbp), %rax
	movzbl	577(%rax), %eax
	movzbl	%al, %eax
	.loc 1 217 6
	cmpq	%rax, 24(%rbp)
	je	.L34
	.loc 1 218 5
	movl	$218, %r8d
	leaq	.LC0(%rip), %rax
	movq	%rax, %rcx
	movl	$101, %edx
	movl	$0, %esi
	movl	$30, %edi
	call	aws_lc_0_38_0_ERR_put_error@PLT
	.loc 1 219 12
	movl	$0, %eax
	jmp	.L38
.L34:
	.loc 1 222 6
	cmpq	$12, -80(%rbp)
	je	.L36
	.loc 1 223 5
	movl	$223, %r8d
	leaq	.LC0(%rip), %rax
	movq	%rax, %rcx
	movl	$121, %edx
	movl	$0, %esi
	movl	$30, %edi
	call	aws_lc_0_38_0_ERR_put_error@PLT
	.loc 1 224 12
	movl	$0, %eax
	jmp	.L38
.L36:
	.loc 1 228 3
	movq	-8(%rbp), %rax
	leaq	376(%rax), %rdi
	movq	-8(%rbp), %rax
	leaq	264(%rax), %rsi
	movq	-72(%rbp), %r8
	movq	40(%rbp), %rcx
	movq	32(%rbp), %rdx
	leaq	-48(%rbp), %rax
	pushq	-96(%rbp)
	pushq	-88(%rbp)
	movq	%r8, %r9
	movq	%rcx, %r8
	movq	%rdx, %rcx
	movq	%rdi, %rdx
	movq	%rax, %rdi
	call	hmac_calculate
	addq	$16, %rsp
	.loc 1 230 45
	movq	-56(%rbp), %rax
	movzbl	577(%rax), %eax
	.loc 1 230 7
	movzbl	%al, %edx
	movq	16(%rbp), %rcx
	leaq	-48(%rbp), %rax
	movq	%rcx, %rsi
	movq	%rax, %rdi
	call	aws_lc_0_38_0_CRYPTO_memcmp@PLT
	.loc 1 230 6 discriminator 1
	testl	%eax, %eax
	je	.L37
	.loc 1 231 5
	movl	$231, %r8d
	leaq	.LC0(%rip), %rax
	movq	%rax, %rcx
	movl	$101, %edx
	movl	$0, %esi
	movl	$30, %edi
	call	aws_lc_0_38_0_ERR_put_error@PLT
	.loc 1 232 12
	movl	$0, %eax
	jmp	.L38
.L37:
	.loc 1 235 3
	movq	-72(%rbp), %rdi
	movq	-96(%rbp), %rcx
	movq	-88(%rbp), %rdx
	movq	-64(%rbp), %rsi
	movq	-8(%rbp), %rax
	movq	%rdi, %r8
	movq	%rax, %rdi
	call	aead_aes_ctr_hmac_sha256_crypt
	.loc 1 237 10
	movl	$1, %eax
.L38:
	.loc 1 238 1
	leave
	.cfi_def_cfa 7, 8
	ret
	.cfi_endproc
.LFE158:
	.size	aead_aes_ctr_hmac_sha256_open_gather, .-aead_aes_ctr_hmac_sha256_open_gather
	.section	.data.rel.ro.local.aead_aes_128_ctr_hmac_sha256,"aw"
	.align 32
	.type	aead_aes_128_ctr_hmac_sha256, @object
	.size	aead_aes_128_ctr_hmac_sha256, 96
aead_aes_128_ctr_hmac_sha256:
	.byte	48
	.byte	12
	.byte	32
	.byte	32
	.value	1
	.zero	2
	.long	0
	.zero	4
	.quad	aead_aes_ctr_hmac_sha256_init
	.quad	0
	.quad	aead_aes_ctr_hmac_sha256_cleanup
	.quad	0
	.quad	aead_aes_ctr_hmac_sha256_seal_scatter
	.quad	aead_aes_ctr_hmac_sha256_open_gather
	.quad	0
	.quad	0
	.quad	0
	.quad	0
	.section	.data.rel.ro.local.aead_aes_256_ctr_hmac_sha256,"aw"
	.align 32
	.type	aead_aes_256_ctr_hmac_sha256, @object
	.size	aead_aes_256_ctr_hmac_sha256, 96
aead_aes_256_ctr_hmac_sha256:
	.byte	64
	.byte	12
	.byte	32
	.byte	32
	.value	2
	.zero	2
	.long	0
	.zero	4
	.quad	aead_aes_ctr_hmac_sha256_init
	.quad	0
	.quad	aead_aes_ctr_hmac_sha256_cleanup
	.quad	0
	.quad	aead_aes_ctr_hmac_sha256_seal_scatter
	.quad	aead_aes_ctr_hmac_sha256_open_gather
	.quad	0
	.quad	0
	.quad	0
	.quad	0
	.section	.text.aws_lc_0_38_0_EVP_aead_aes_128_ctr_hmac_sha256,"ax",@progbits
	.globl	aws_lc_0_38_0_EVP_aead_aes_128_ctr_hmac_sha256
	.type	aws_lc_0_38_0_EVP_aead_aes_128_ctr_hmac_sha256, @function
aws_lc_0_38_0_EVP_aead_aes_128_ctr_hmac_sha256:
.LFB159:
	.loc 1 280 56
	.cfi_startproc
	pushq	%rbp
	.cfi_def_cfa_offset 16
	.cfi_offset 6, -16
	movq	%rsp, %rbp
	.cfi_def_cfa_register 6
	.loc 1 281 10
	leaq	aead_aes_128_ctr_hmac_sha256(%rip), %rax
	.loc 1 282 1
	popq	%rbp
	.cfi_def_cfa 7, 8
	ret
	.cfi_endproc
.LFE159:
	.size	aws_lc_0_38_0_EVP_aead_aes_128_ctr_hmac_sha256, .-aws_lc_0_38_0_EVP_aead_aes_128_ctr_hmac_sha256
	.section	.text.aws_lc_0_38_0_EVP_aead_aes_256_ctr_hmac_sha256,"ax",@progbits
	.globl	aws_lc_0_38_0_EVP_aead_aes_256_ctr_hmac_sha256
	.type	aws_lc_0_38_0_EVP_aead_aes_256_ctr_hmac_sha256, @function
aws_lc_0_38_0_EVP_aead_aes_256_ctr_hmac_sha256:
.LFB160:
	.loc 1 284 56
	.cfi_startproc
	pushq	%rbp
	.cfi_def_cfa_offset 16
	.cfi_offset 6, -16
	movq	%rsp, %rbp
	.cfi_def_cfa_register 6
	.loc 1 285 10
	leaq	aead_aes_256_ctr_hmac_sha256(%rip), %rax
	.loc 1 286 1
	popq	%rbp
	.cfi_def_cfa 7, 8
	ret
	.cfi_endproc
.LFE160:
	.size	aws_lc_0_38_0_EVP_aead_aes_256_ctr_hmac_sha256, .-aws_lc_0_38_0_EVP_aead_aes_256_ctr_hmac_sha256
	.section	.rodata.hmac_key_len.1,"a"
	.align 8
	.type	hmac_key_len.1, @object
	.size	hmac_key_len.1, 8
hmac_key_len.1:
	.quad	32
	.section	.rodata.hmac_key_len.0,"a"
	.align 8
	.type	hmac_key_len.0, @object
	.size	hmac_key_len.0, 8
hmac_key_len.0:
	.quad	32
	.text
.Letext0:
	.file 3 "/usr/lib/gcc/x86_64-redhat-linux/14/include/stddef.h"
	.file 4 "/usr/include/bits/types.h"
	.file 5 "/usr/include/bits/stdint-uintn.h"
	.file 6 "/home/unnamed/.cargo/registry/src/index.crates.io-1949cf8c6b5b557f/aws-lc-sys-0.38.0/aws-lc/include/openssl/bytestring.h"
	.file 7 "/home/unnamed/.cargo/registry/src/index.crates.io-1949cf8c6b5b557f/aws-lc-sys-0.38.0/aws-lc/include/openssl/base.h"
	.file 8 "/home/unnamed/.cargo/registry/src/index.crates.io-1949cf8c6b5b557f/aws-lc-sys-0.38.0/aws-lc/crypto/cipher_extra/../fipsmodule/cipher/internal.h"
	.file 9 "/home/unnamed/.cargo/registry/src/index.crates.io-1949cf8c6b5b557f/aws-lc-sys-0.38.0/aws-lc/include/openssl/aead.h"
	.file 10 "/home/unnamed/.cargo/registry/src/index.crates.io-1949cf8c6b5b557f/aws-lc-sys-0.38.0/aws-lc/include/openssl/sha.h"
	.file 11 "/home/unnamed/.cargo/registry/src/index.crates.io-1949cf8c6b5b557f/aws-lc-sys-0.38.0/aws-lc/include/openssl/aes.h"
	.file 12 "/home/unnamed/.cargo/registry/src/index.crates.io-1949cf8c6b5b557f/aws-lc-sys-0.38.0/aws-lc/crypto/cipher_extra/../fipsmodule/cipher/../modes/internal.h"
	.file 13 "/home/unnamed/.cargo/registry/src/index.crates.io-1949cf8c6b5b557f/aws-lc-sys-0.38.0/aws-lc/include/openssl/mem.h"
	.file 14 "/home/unnamed/.cargo/registry/src/index.crates.io-1949cf8c6b5b557f/aws-lc-sys-0.38.0/aws-lc/include/openssl/err.h"
	.file 15 "/usr/include/string.h"
	.section	.note.GNU-stack,"",@progbits
