	.file	"e_aesgcmsiv.c"
	.text
.Ltext0:
	.file 1 "/home/unnamed/.cargo/registry/src/index.crates.io-1949cf8c6b5b557f/aws-lc-sys-0.38.0/aws-lc/crypto/cipher_extra/e_aesgcmsiv.c"
	.section	.text.OPENSSL_memcpy,"ax",@progbits
	.type	OPENSSL_memcpy, @function
OPENSSL_memcpy:
.LFB94:
	.file 2 "/home/unnamed/.cargo/registry/src/index.crates.io-1949cf8c6b5b557f/aws-lc-sys-0.38.0/aws-lc/crypto/cipher_extra/../fipsmodule/cipher/../../internal.h"
	.loc 2 956 74
	.cfi_startproc
	pushq	%rbp
	.cfi_def_cfa_offset 16
	.cfi_offset 6, -16
	movq	%rsp, %rbp
	.cfi_def_cfa_register 6
	subq	$32, %rsp
	movq	%rdi, -8(%rbp)
	movq	%rsi, -16(%rbp)
	movq	%rdx, -24(%rbp)
	.loc 2 957 6
	cmpq	$0, -24(%rbp)
	jne	.L2
	.loc 2 958 12
	movq	-8(%rbp), %rax
	jmp	.L3
.L2:
	.loc 2 961 10
	movq	-24(%rbp), %rdx
	movq	-16(%rbp), %rcx
	movq	-8(%rbp), %rax
	movq	%rcx, %rsi
	movq	%rax, %rdi
	call	memcpy@PLT
.L3:
	.loc 2 962 1
	leave
	.cfi_def_cfa 7, 8
	ret
	.cfi_endproc
.LFE94:
	.size	OPENSSL_memcpy, .-OPENSSL_memcpy
	.section	.text.OPENSSL_memset,"ax",@progbits
	.type	OPENSSL_memset, @function
OPENSSL_memset:
.LFB96:
	.loc 2 972 64
	.cfi_startproc
	pushq	%rbp
	.cfi_def_cfa_offset 16
	.cfi_offset 6, -16
	movq	%rsp, %rbp
	.cfi_def_cfa_register 6
	subq	$32, %rsp
	movq	%rdi, -8(%rbp)
	movl	%esi, -12(%rbp)
	movq	%rdx, -24(%rbp)
	.loc 2 973 6
	cmpq	$0, -24(%rbp)
	jne	.L5
	.loc 2 974 12
	movq	-8(%rbp), %rax
	jmp	.L6
.L5:
	.loc 2 977 10
	movq	-24(%rbp), %rdx
	movl	-12(%rbp), %ecx
	movq	-8(%rbp), %rax
	movl	%ecx, %esi
	movq	%rax, %rdi
	call	memset@PLT
.L6:
	.loc 2 978 1
	leave
	.cfi_def_cfa 7, 8
	ret
	.cfi_endproc
.LFE96:
	.size	OPENSSL_memset, .-OPENSSL_memset
	.section	.text.CRYPTO_load_u32_le,"ax",@progbits
	.type	CRYPTO_load_u32_le, @function
CRYPTO_load_u32_le:
.LFB101:
	.loc 2 1021 59
	.cfi_startproc
	pushq	%rbp
	.cfi_def_cfa_offset 16
	.cfi_offset 6, -16
	movq	%rsp, %rbp
	.cfi_def_cfa_register 6
	subq	$32, %rsp
	movq	%rdi, -24(%rbp)
	.loc 2 1023 3
	movq	-24(%rbp), %rcx
	leaq	-4(%rbp), %rax
	movl	$4, %edx
	movq	%rcx, %rsi
	movq	%rax, %rdi
	call	OPENSSL_memcpy
	.loc 2 1027 10
	movl	-4(%rbp), %eax
	.loc 2 1029 1
	leave
	.cfi_def_cfa 7, 8
	ret
	.cfi_endproc
.LFE101:
	.size	CRYPTO_load_u32_le, .-CRYPTO_load_u32_le
	.section	.text.CRYPTO_store_u32_le,"ax",@progbits
	.type	CRYPTO_store_u32_le, @function
CRYPTO_store_u32_le:
.LFB102:
	.loc 2 1031 63
	.cfi_startproc
	pushq	%rbp
	.cfi_def_cfa_offset 16
	.cfi_offset 6, -16
	movq	%rsp, %rbp
	.cfi_def_cfa_register 6
	subq	$16, %rsp
	movq	%rdi, -8(%rbp)
	movl	%esi, -12(%rbp)
	.loc 2 1035 3
	leaq	-12(%rbp), %rcx
	movq	-8(%rbp), %rax
	movl	$4, %edx
	movq	%rcx, %rsi
	movq	%rax, %rdi
	call	OPENSSL_memcpy
	.loc 2 1037 1
	nop
	leave
	.cfi_def_cfa 7, 8
	ret
	.cfi_endproc
.LFE102:
	.size	CRYPTO_store_u32_le, .-CRYPTO_store_u32_le
	.section	.text.CRYPTO_store_u64_le,"ax",@progbits
	.type	CRYPTO_store_u64_le, @function
CRYPTO_store_u64_le:
.LFB106:
	.loc 2 1068 63
	.cfi_startproc
	pushq	%rbp
	.cfi_def_cfa_offset 16
	.cfi_offset 6, -16
	movq	%rsp, %rbp
	.cfi_def_cfa_register 6
	subq	$16, %rsp
	movq	%rdi, -8(%rbp)
	movq	%rsi, -16(%rbp)
	.loc 2 1072 3
	leaq	-16(%rbp), %rcx
	movq	-8(%rbp), %rax
	movl	$8, %edx
	movq	%rcx, %rsi
	movq	%rax, %rdi
	call	OPENSSL_memcpy
	.loc 2 1074 1
	nop
	leave
	.cfi_def_cfa 7, 8
	ret
	.cfi_endproc
.LFE106:
	.size	CRYPTO_store_u64_le, .-CRYPTO_store_u64_le
	.section	.text.OPENSSL_ia32cap_get,"ax",@progbits
	.type	OPENSSL_ia32cap_get, @function
OPENSSL_ia32cap_get:
.LFB128:
	.file 3 "/home/unnamed/.cargo/registry/src/index.crates.io-1949cf8c6b5b557f/aws-lc-sys-0.38.0/aws-lc/crypto/cipher_extra/../fipsmodule/cipher/../modes/../cpucap/internal.h"
	.loc 3 48 58
	.cfi_startproc
	pushq	%rbp
	.cfi_def_cfa_offset 16
	.cfi_offset 6, -16
	movq	%rsp, %rbp
	.cfi_def_cfa_register 6
	.loc 3 49 10
	movq	aws_lc_0_38_0_OPENSSL_ia32cap_P@GOTPCREL(%rip), %rax
	.loc 3 50 1
	popq	%rbp
	.cfi_def_cfa 7, 8
	ret
	.cfi_endproc
.LFE128:
	.size	OPENSSL_ia32cap_get, .-OPENSSL_ia32cap_get
	.section	.text.CRYPTO_is_AESNI_capable,"ax",@progbits
	.type	CRYPTO_is_AESNI_capable, @function
CRYPTO_is_AESNI_capable:
.LFB135:
	.loc 3 82 50
	.cfi_startproc
	pushq	%rbp
	.cfi_def_cfa_offset 16
	.cfi_offset 6, -16
	movq	%rsp, %rbp
	.cfi_def_cfa_register 6
	.loc 3 83 11
	call	OPENSSL_ia32cap_get
	.loc 3 83 32 discriminator 1
	addq	$4, %rax
	movl	(%rax), %eax
	.loc 3 83 36 discriminator 1
	andl	$33554432, %eax
	.loc 3 83 49 discriminator 1
	testl	%eax, %eax
	setne	%al
	movzbl	%al, %eax
	.loc 3 84 1
	popq	%rbp
	.cfi_def_cfa 7, 8
	ret
	.cfi_endproc
.LFE135:
	.size	CRYPTO_is_AESNI_capable, .-CRYPTO_is_AESNI_capable
	.section	.text.CRYPTO_is_AVX_capable,"ax",@progbits
	.type	CRYPTO_is_AVX_capable, @function
CRYPTO_is_AVX_capable:
.LFB136:
	.loc 3 89 48
	.cfi_startproc
	pushq	%rbp
	.cfi_def_cfa_offset 16
	.cfi_offset 6, -16
	movq	%rsp, %rbp
	.cfi_def_cfa_register 6
	.loc 3 90 11
	call	OPENSSL_ia32cap_get
	.loc 3 90 32 discriminator 1
	addq	$4, %rax
	movl	(%rax), %eax
	.loc 3 90 36 discriminator 1
	andl	$268435456, %eax
	.loc 3 90 49 discriminator 1
	testl	%eax, %eax
	setne	%al
	movzbl	%al, %eax
	.loc 3 91 1
	popq	%rbp
	.cfi_def_cfa 7, 8
	ret
	.cfi_endproc
.LFE136:
	.size	CRYPTO_is_AVX_capable, .-CRYPTO_is_AVX_capable
	.section	.text.asm_ctx_from_ctx,"ax",@progbits
	.type	asm_ctx_from_ctx, @function
asm_ctx_from_ctx:
.LFB152:
	.loc 1 54 30
	.cfi_startproc
	pushq	%rbp
	.cfi_def_cfa_offset 16
	.cfi_offset 6, -16
	movq	%rsp, %rbp
	.cfi_def_cfa_register 6
	movq	%rdi, -24(%rbp)
	.loc 1 57 47
	movq	-24(%rbp), %rax
	addq	$8, %rax
	.loc 1 57 19
	andl	$8, %eax
	movq	%rax, -8(%rbp)
	.loc 1 58 9
	movq	-24(%rbp), %rax
	movzbl	576(%rax), %eax
	movzbl	%al, %eax
	.loc 1 58 5
	cmpq	%rax, -8(%rbp)
	je	.L18
	.loc 1 59 12
	movl	$0, %eax
	jmp	.L19
.L18:
	.loc 1 61 10
	movq	-24(%rbp), %rdx
	movq	-8(%rbp), %rax
	addq	%rdx, %rax
	addq	$8, %rax
.L19:
	.loc 1 62 1
	popq	%rbp
	.cfi_def_cfa 7, 8
	ret
	.cfi_endproc
.LFE152:
	.size	asm_ctx_from_ctx, .-asm_ctx_from_ctx
	.section	.rodata
	.align 8
.LC0:
	.string	"/home/unnamed/.cargo/registry/src/index.crates.io-1949cf8c6b5b557f/aws-lc-sys-0.38.0/aws-lc/crypto/cipher_extra/e_aesgcmsiv.c"
	.align 8
.LC1:
	.string	"(((uintptr_t)gcm_siv_ctx) & 15) == 0"
	.section	.text.aead_aes_gcm_siv_asm_init,"ax",@progbits
	.type	aead_aes_gcm_siv_asm_init, @function
aead_aes_gcm_siv_asm_init:
.LFB153:
	.loc 1 75 70
	.cfi_startproc
	pushq	%rbp
	.cfi_def_cfa_offset 16
	.cfi_offset 6, -16
	movq	%rsp, %rbp
	.cfi_def_cfa_register 6
	subq	$48, %rsp
	movq	%rdi, -24(%rbp)
	movq	%rsi, -32(%rbp)
	movq	%rdx, -40(%rbp)
	movq	%rcx, -48(%rbp)
	.loc 1 76 16
	movq	-40(%rbp), %rax
	salq	$3, %rax
	movq	%rax, -8(%rbp)
	.loc 1 78 6
	cmpq	$128, -8(%rbp)
	je	.L21
	.loc 1 78 23 discriminator 1
	cmpq	$256, -8(%rbp)
	je	.L21
	.loc 1 79 5
	movl	$79, %r8d
	leaq	.LC0(%rip), %rax
	movq	%rax, %rcx
	movl	$102, %edx
	movl	$0, %esi
	movl	$30, %edi
	call	aws_lc_0_38_0_ERR_put_error@PLT
	.loc 1 80 12
	movl	$0, %eax
	jmp	.L22
.L21:
	.loc 1 83 6
	cmpq	$0, -48(%rbp)
	jne	.L23
	.loc 1 84 13
	movq	$16, -48(%rbp)
.L23:
	.loc 1 87 6
	cmpq	$16, -48(%rbp)
	je	.L24
	.loc 1 88 5
	movl	$88, %r8d
	leaq	.LC0(%rip), %rax
	movq	%rax, %rcx
	movl	$116, %edx
	movl	$0, %esi
	movl	$30, %edi
	call	aws_lc_0_38_0_ERR_put_error@PLT
	.loc 1 89 12
	movl	$0, %eax
	jmp	.L22
.L24:
	.loc 1 92 35
	movq	-24(%rbp), %rax
	addq	$8, %rax
	.loc 1 92 48
	andl	$8, %eax
	movl	%eax, %edx
	.loc 1 92 21
	movq	-24(%rbp), %rax
	movb	%dl, 576(%rax)
	.loc 1 93 50
	movq	-24(%rbp), %rax
	movq	%rax, %rdi
	call	asm_ctx_from_ctx
	movq	%rax, -16(%rbp)
	.loc 1 94 5
	cmpq	$0, -16(%rbp)
	jne	.L25
	.loc 1 95 5
	movl	$95, %r8d
	leaq	.LC0(%rip), %rax
	movq	%rax, %rcx
	movl	$107, %edx
	movl	$0, %esi
	movl	$30, %edi
	call	aws_lc_0_38_0_ERR_put_error@PLT
	.loc 1 96 12
	movl	$0, %eax
	jmp	.L22
.L25:
	.loc 1 98 3
	movq	-16(%rbp), %rax
	andl	$15, %eax
	testq	%rax, %rax
	je	.L26
	.loc 1 98 3 is_stmt 0 discriminator 1
	leaq	__PRETTY_FUNCTION__.0(%rip), %rax
	movq	%rax, %rcx
	movl	$98, %edx
	leaq	.LC0(%rip), %rax
	movq	%rax, %rsi
	leaq	.LC1(%rip), %rax
	movq	%rax, %rdi
	call	__assert_fail@PLT
.L26:
	.loc 1 100 6 is_stmt 1
	cmpq	$128, -8(%rbp)
	jne	.L27
	.loc 1 101 5
	movq	-16(%rbp), %rdx
	movq	-32(%rbp), %rax
	movq	%rdx, %rsi
	movq	%rax, %rdi
	call	aws_lc_0_38_0_aes128gcmsiv_aes_ks@PLT
	.loc 1 102 29
	movq	-16(%rbp), %rax
	movl	$1, 240(%rax)
	jmp	.L28
.L27:
	.loc 1 104 5
	movq	-16(%rbp), %rdx
	movq	-32(%rbp), %rax
	movq	%rdx, %rsi
	movq	%rax, %rdi
	call	aws_lc_0_38_0_aes256gcmsiv_aes_ks@PLT
	.loc 1 105 29
	movq	-16(%rbp), %rax
	movl	$0, 240(%rax)
.L28:
	.loc 1 108 16
	movq	-48(%rbp), %rax
	movl	%eax, %edx
	movq	-24(%rbp), %rax
	movb	%dl, 577(%rax)
	.loc 1 110 10
	movl	$1, %eax
.L22:
	.loc 1 111 1
	leave
	.cfi_def_cfa 7, 8
	ret
	.cfi_endproc
.LFE153:
	.size	aead_aes_gcm_siv_asm_init, .-aead_aes_gcm_siv_asm_init
	.section	.text.aead_aes_gcm_siv_asm_cleanup,"ax",@progbits
	.type	aead_aes_gcm_siv_asm_cleanup, @function
aead_aes_gcm_siv_asm_cleanup:
.LFB154:
	.loc 1 113 61
	.cfi_startproc
	pushq	%rbp
	.cfi_def_cfa_offset 16
	.cfi_offset 6, -16
	movq	%rsp, %rbp
	.cfi_def_cfa_register 6
	movq	%rdi, -8(%rbp)
	.loc 1 113 62
	nop
	popq	%rbp
	.cfi_def_cfa 7, 8
	ret
	.cfi_endproc
.LFE154:
	.size	aead_aes_gcm_siv_asm_cleanup, .-aead_aes_gcm_siv_asm_cleanup
	.section	.text.gcm_siv_asm_polyval,"ax",@progbits
	.type	gcm_siv_asm_polyval, @function
gcm_siv_asm_polyval:
.LFB155:
	.loc 1 235 58
	.cfi_startproc
	pushq	%rbp
	.cfi_def_cfa_offset 16
	.cfi_offset 6, -16
	movq	%rsp, %rbp
	.cfi_def_cfa_register 6
	subq	$240, %rsp
	movq	%rdi, -200(%rbp)
	movq	%rsi, -208(%rbp)
	movq	%rdx, -216(%rbp)
	movq	%rcx, -224(%rbp)
	movq	%r8, -232(%rbp)
	movq	%r9, -240(%rbp)
	.loc 1 236 3
	movq	-200(%rbp), %rax
	movl	$16, %edx
	movl	$0, %esi
	movq	%rax, %rdi
	call	OPENSSL_memset
	.loc 1 237 16
	movq	-232(%rbp), %rax
	shrq	$4, %rax
	movq	%rax, -24(%rbp)
	.loc 1 238 16
	movq	-216(%rbp), %rax
	shrq	$4, %rax
	movq	%rax, -32(%rbp)
	.loc 1 239 7
	movl	$0, -4(%rbp)
	.loc 1 242 6
	cmpq	$8, -24(%rbp)
	ja	.L31
	.loc 1 242 21 discriminator 1
	cmpq	$8, -32(%rbp)
	jbe	.L32
.L31:
	.loc 1 243 17
	movl	$1, -4(%rbp)
	.loc 1 244 5
	movq	-240(%rbp), %rdx
	leaq	-160(%rbp), %rax
	movq	%rdx, %rsi
	movq	%rax, %rdi
	call	aws_lc_0_38_0_aesgcmsiv_htable_init@PLT
.L32:
	.loc 1 247 6
	cmpl	$0, -4(%rbp)
	je	.L33
	.loc 1 248 5
	movq	-232(%rbp), %rax
	andq	$-16, %rax
	movq	%rax, %rdi
	movq	-200(%rbp), %rdx
	movq	-224(%rbp), %rsi
	leaq	-160(%rbp), %rax
	movq	%rdx, %rcx
	movq	%rdi, %rdx
	movq	%rax, %rdi
	call	aws_lc_0_38_0_aesgcmsiv_htable_polyval@PLT
	jmp	.L34
.L33:
	.loc 1 250 5
	movq	-24(%rbp), %rcx
	movq	-224(%rbp), %rdx
	movq	-240(%rbp), %rsi
	movq	-200(%rbp), %rax
	movq	%rax, %rdi
	call	aws_lc_0_38_0_aesgcmsiv_polyval_horner@PLT
.L34:
	.loc 1 254 14
	movq	-232(%rbp), %rax
	andl	$15, %eax
	.loc 1 254 6
	testq	%rax, %rax
	je	.L35
	.loc 1 255 5
	leaq	-176(%rbp), %rax
	movl	$16, %edx
	movl	$0, %esi
	movq	%rax, %rdi
	call	OPENSSL_memset
	.loc 1 256 5
	movq	-232(%rbp), %rax
	andl	$15, %eax
	movq	%rax, %rdx
	.loc 1 256 40
	movq	-232(%rbp), %rax
	andq	$-16, %rax
	movq	%rax, %rcx
	.loc 1 256 29
	movq	-224(%rbp), %rax
	addq	%rax, %rcx
	.loc 1 256 5
	leaq	-176(%rbp), %rax
	movq	%rcx, %rsi
	movq	%rax, %rdi
	call	OPENSSL_memcpy
	.loc 1 257 5
	leaq	-176(%rbp), %rdx
	movq	-240(%rbp), %rsi
	movq	-200(%rbp), %rax
	movl	$1, %ecx
	movq	%rax, %rdi
	call	aws_lc_0_38_0_aesgcmsiv_polyval_horner@PLT
.L35:
	.loc 1 260 6
	cmpl	$0, -4(%rbp)
	je	.L36
	.loc 1 261 5
	movq	-216(%rbp), %rax
	andq	$-16, %rax
	movq	%rax, %rdi
	movq	-200(%rbp), %rdx
	movq	-208(%rbp), %rsi
	leaq	-160(%rbp), %rax
	movq	%rdx, %rcx
	movq	%rdi, %rdx
	movq	%rax, %rdi
	call	aws_lc_0_38_0_aesgcmsiv_htable_polyval@PLT
	jmp	.L37
.L36:
	.loc 1 263 5
	movq	-32(%rbp), %rcx
	movq	-208(%rbp), %rdx
	movq	-240(%rbp), %rsi
	movq	-200(%rbp), %rax
	movq	%rax, %rdi
	call	aws_lc_0_38_0_aesgcmsiv_polyval_horner@PLT
.L37:
	.loc 1 266 14
	movq	-216(%rbp), %rax
	andl	$15, %eax
	.loc 1 266 6
	testq	%rax, %rax
	je	.L38
	.loc 1 267 5
	leaq	-176(%rbp), %rax
	movl	$16, %edx
	movl	$0, %esi
	movq	%rax, %rdi
	call	OPENSSL_memset
	.loc 1 268 5
	movq	-216(%rbp), %rax
	andl	$15, %eax
	movq	%rax, %rdx
	.loc 1 268 40
	movq	-216(%rbp), %rax
	andq	$-16, %rax
	movq	%rax, %rcx
	.loc 1 268 29
	movq	-208(%rbp), %rax
	addq	%rax, %rcx
	.loc 1 268 5
	leaq	-176(%rbp), %rax
	movq	%rcx, %rsi
	movq	%rax, %rdi
	call	OPENSSL_memcpy
	.loc 1 269 5
	leaq	-176(%rbp), %rdx
	movq	-240(%rbp), %rsi
	movq	-200(%rbp), %rax
	movl	$1, %ecx
	movq	%rax, %rdi
	call	aws_lc_0_38_0_aesgcmsiv_polyval_horner@PLT
.L38:
	.loc 1 273 3
	movq	-232(%rbp), %rax
	leaq	0(,%rax,8), %rdx
	leaq	-192(%rbp), %rax
	movq	%rdx, %rsi
	movq	%rax, %rdi
	call	CRYPTO_store_u64_le
	.loc 1 274 3
	movq	-216(%rbp), %rax
	leaq	0(,%rax,8), %rdx
	leaq	-192(%rbp), %rax
	addq	$8, %rax
	movq	%rdx, %rsi
	movq	%rax, %rdi
	call	CRYPTO_store_u64_le
	.loc 1 275 3
	leaq	-192(%rbp), %rdx
	movq	-240(%rbp), %rsi
	movq	-200(%rbp), %rax
	movl	$1, %ecx
	movq	%rax, %rdi
	call	aws_lc_0_38_0_aesgcmsiv_polyval_horner@PLT
.LBB2:
	.loc 1 277 15
	movq	$0, -16(%rbp)
	.loc 1 277 3
	jmp	.L39
.L40:
	.loc 1 278 12
	movq	-200(%rbp), %rdx
	movq	-16(%rbp), %rax
	addq	%rdx, %rax
	movzbl	(%rax), %esi
	.loc 1 278 24
	movq	16(%rbp), %rdx
	movq	-16(%rbp), %rax
	addq	%rdx, %rax
	movzbl	(%rax), %ecx
	.loc 1 278 12
	movq	-200(%rbp), %rdx
	movq	-16(%rbp), %rax
	addq	%rdx, %rax
	.loc 1 278 16
	xorl	%ecx, %esi
	movl	%esi, %edx
	movb	%dl, (%rax)
	.loc 1 277 31 discriminator 3
	addq	$1, -16(%rbp)
.L39:
	.loc 1 277 24 discriminator 1
	cmpq	$11, -16(%rbp)
	jbe	.L40
.LBE2:
	.loc 1 281 10
	movq	-200(%rbp), %rax
	addq	$15, %rax
	movzbl	(%rax), %edx
	movq	-200(%rbp), %rax
	addq	$15, %rax
	.loc 1 281 15
	andl	$127, %edx
	movb	%dl, (%rax)
	.loc 1 282 1
	nop
	leave
	.cfi_def_cfa 7, 8
	ret
	.cfi_endproc
.LFE155:
	.size	gcm_siv_asm_polyval, .-gcm_siv_asm_polyval
	.section	.text.aead_aes_gcm_siv_asm_crypt_last_block,"ax",@progbits
	.type	aead_aes_gcm_siv_asm_crypt_last_block, @function
aead_aes_gcm_siv_asm_crypt_last_block:
.LFB156:
	.loc 1 291 62
	.cfi_startproc
	pushq	%rbp
	.cfi_def_cfa_offset 16
	.cfi_offset 6, -16
	movq	%rsp, %rbp
	.cfi_def_cfa_register 6
	subq	$112, %rsp
	movl	%edi, -68(%rbp)
	movq	%rsi, -80(%rbp)
	movq	%rdx, -88(%rbp)
	movq	%rcx, -96(%rbp)
	movq	%r8, -104(%rbp)
	movq	%r9, -112(%rbp)
	.loc 1 293 3
	movq	-104(%rbp), %rcx
	leaq	-64(%rbp), %rax
	movl	$16, %edx
	movq	%rcx, %rsi
	movq	%rax, %rdi
	call	OPENSSL_memcpy
	.loc 1 294 10
	movzbl	-49(%rbp), %eax
	.loc 1 294 15
	orl	$-128, %eax
	movb	%al, -49(%rbp)
	.loc 1 295 32
	leaq	-64(%rbp), %rax
	movq	%rax, %rdi
	call	CRYPTO_load_u32_le
	.loc 1 295 69 discriminator 1
	movq	-96(%rbp), %rdx
	shrq	$4, %rdx
	.loc 1 295 3 discriminator 1
	addl	%eax, %edx
	leaq	-64(%rbp), %rax
	movl	%edx, %esi
	movq	%rax, %rdi
	call	CRYPTO_store_u32_le
	.loc 1 297 6
	cmpl	$0, -68(%rbp)
	je	.L42
	.loc 1 298 5
	movq	-112(%rbp), %rdx
	leaq	-64(%rbp), %rcx
	leaq	-64(%rbp), %rax
	movq	%rcx, %rsi
	movq	%rax, %rdi
	call	aws_lc_0_38_0_aes128gcmsiv_ecb_enc_block@PLT
	jmp	.L43
.L42:
	.loc 1 300 5
	movq	-112(%rbp), %rdx
	leaq	-64(%rbp), %rcx
	leaq	-64(%rbp), %rax
	movq	%rcx, %rsi
	movq	%rax, %rdi
	call	aws_lc_0_38_0_aes256gcmsiv_ecb_enc_block@PLT
.L43:
	.loc 1 303 16
	movq	-96(%rbp), %rax
	andq	$-16, %rax
	movq	%rax, -16(%rbp)
	.loc 1 304 16
	movq	-96(%rbp), %rax
	andl	$15, %eax
	movq	%rax, -24(%rbp)
	.loc 1 305 12
	movq	-80(%rbp), %rdx
	movq	-16(%rbp), %rax
	addq	%rdx, %rax
	movq	%rax, -32(%rbp)
	.loc 1 306 18
	movq	-88(%rbp), %rdx
	movq	-16(%rbp), %rax
	addq	%rdx, %rax
	movq	%rax, -40(%rbp)
.LBB3:
	.loc 1 307 15
	movq	$0, -8(%rbp)
	.loc 1 307 3
	jmp	.L44
.L45:
	.loc 1 308 38
	movq	-40(%rbp), %rdx
	movq	-8(%rbp), %rax
	addq	%rdx, %rax
	movzbl	(%rax), %esi
	.loc 1 308 51
	leaq	-64(%rbp), %rdx
	movq	-8(%rbp), %rax
	addq	%rdx, %rax
	movzbl	(%rax), %ecx
	.loc 1 308 19
	movq	-32(%rbp), %rdx
	movq	-8(%rbp), %rax
	addq	%rdx, %rax
	.loc 1 308 23
	xorl	%ecx, %esi
	movl	%esi, %edx
	movb	%dl, (%rax)
	.loc 1 307 43 discriminator 3
	addq	$1, -8(%rbp)
.L44:
	.loc 1 307 24 discriminator 1
	movq	-8(%rbp), %rax
	cmpq	-24(%rbp), %rax
	jb	.L45
.LBE3:
	.loc 1 310 1
	nop
	nop
	leave
	.cfi_def_cfa 7, 8
	ret
	.cfi_endproc
.LFE156:
	.size	aead_aes_gcm_siv_asm_crypt_last_block, .-aead_aes_gcm_siv_asm_crypt_last_block
	.section	.text.aead_aes_gcm_siv_kdf,"ax",@progbits
	.type	aead_aes_gcm_siv_kdf, @function
aead_aes_gcm_siv_kdf:
.LFB157:
	.loc 1 317 30
	.cfi_startproc
	pushq	%rbp
	.cfi_def_cfa_offset 16
	.cfi_offset 6, -16
	movq	%rsp, %rbp
	.cfi_def_cfa_register 6
	subq	$160, %rsp
	movl	%edi, -116(%rbp)
	movq	%rsi, -128(%rbp)
	movq	%rdx, -136(%rbp)
	movq	%rcx, -144(%rbp)
	movq	%r8, -152(%rbp)
	.loc 1 319 3
	movq	-152(%rbp), %rcx
	leaq	-16(%rbp), %rax
	movl	$12, %edx
	movq	%rcx, %rsi
	movq	%rax, %rdi
	call	OPENSSL_memcpy
	.loc 1 322 6
	cmpl	$0, -116(%rbp)
	je	.L47
	.loc 1 323 5
	movq	-128(%rbp), %rdx
	leaq	-112(%rbp), %rcx
	leaq	-16(%rbp), %rax
	movq	%rcx, %rsi
	movq	%rax, %rdi
	call	aws_lc_0_38_0_aes128gcmsiv_kdf@PLT
	.loc 1 324 41
	movq	-80(%rbp), %rdx
	.loc 1 324 27
	movq	-144(%rbp), %rax
	movq	%rdx, (%rax)
	.loc 1 325 23
	movq	-144(%rbp), %rax
	leaq	8(%rax), %rdx
	.loc 1 325 41
	movq	-64(%rbp), %rax
	.loc 1 325 27
	movq	%rax, (%rdx)
	jmp	.L48
.L47:
	.loc 1 327 5
	movq	-128(%rbp), %rdx
	leaq	-112(%rbp), %rcx
	leaq	-16(%rbp), %rax
	movq	%rcx, %rsi
	movq	%rax, %rdi
	call	aws_lc_0_38_0_aes256gcmsiv_kdf@PLT
	.loc 1 328 41
	movq	-80(%rbp), %rdx
	.loc 1 328 27
	movq	-144(%rbp), %rax
	movq	%rdx, (%rax)
	.loc 1 329 23
	movq	-144(%rbp), %rax
	leaq	8(%rax), %rdx
	.loc 1 329 41
	movq	-64(%rbp), %rax
	.loc 1 329 27
	movq	%rax, (%rdx)
	.loc 1 330 23
	movq	-144(%rbp), %rax
	leaq	16(%rax), %rdx
	.loc 1 330 41
	movq	-48(%rbp), %rax
	.loc 1 330 27
	movq	%rax, (%rdx)
	.loc 1 331 23
	movq	-144(%rbp), %rax
	leaq	24(%rax), %rdx
	.loc 1 331 41
	movq	-32(%rbp), %rax
	.loc 1 331 27
	movq	%rax, (%rdx)
.L48:
	.loc 1 334 40
	movq	-112(%rbp), %rdx
	.loc 1 334 26
	movq	-136(%rbp), %rax
	movq	%rdx, (%rax)
	.loc 1 335 22
	movq	-136(%rbp), %rax
	leaq	8(%rax), %rdx
	.loc 1 335 40
	movq	-96(%rbp), %rax
	.loc 1 335 26
	movq	%rax, (%rdx)
	.loc 1 336 1
	nop
	leave
	.cfi_def_cfa 7, 8
	ret
	.cfi_endproc
.LFE157:
	.size	aead_aes_gcm_siv_kdf, .-aead_aes_gcm_siv_kdf
	.section	.text.aead_aes_gcm_siv_asm_seal_scatter,"ax",@progbits
	.type	aead_aes_gcm_siv_asm_seal_scatter, @function
aead_aes_gcm_siv_asm_seal_scatter:
.LFB158:
	.loc 1 342 60
	.cfi_startproc
	pushq	%rbp
	.cfi_def_cfa_offset 16
	.cfi_offset 6, -16
	movq	%rsp, %rbp
	.cfi_def_cfa_register 6
	subq	$400, %rsp
	movq	%rdi, -360(%rbp)
	movq	%rsi, -368(%rbp)
	movq	%rdx, -376(%rbp)
	movq	%rcx, -384(%rbp)
	movq	%r8, -392(%rbp)
	movq	%r9, -400(%rbp)
	.loc 1 343 56
	movq	-360(%rbp), %rax
	movq	%rax, %rdi
	call	asm_ctx_from_ctx
	movq	%rax, -8(%rbp)
	.loc 1 344 5
	cmpq	$0, -8(%rbp)
	jne	.L50
	.loc 1 345 5
	movl	$345, %r8d
	leaq	.LC0(%rip), %rax
	movq	%rax, %rcx
	movl	$142, %edx
	movl	$0, %esi
	movl	$30, %edi
	call	aws_lc_0_38_0_ERR_put_error@PLT
	.loc 1 346 12
	movl	$0, %eax
	jmp	.L61
.L50:
	.loc 1 348 18
	movq	32(%rbp), %rax
	movq	%rax, -16(%rbp)
	.loc 1 349 18
	movq	64(%rbp), %rax
	movq	%rax, -24(%rbp)
	.loc 1 351 6
	movabsq	$68719476736, %rax
	cmpq	-16(%rbp), %rax
	jb	.L52
	.loc 1 351 39 discriminator 1
	movabsq	$2305843009213693951, %rax
	cmpq	-24(%rbp), %rax
	jnb	.L53
.L52:
	.loc 1 352 5
	movl	$352, %r8d
	leaq	.LC0(%rip), %rax
	movq	%rax, %rcx
	movl	$117, %edx
	movl	$0, %esi
	movl	$30, %edi
	call	aws_lc_0_38_0_ERR_put_error@PLT
	.loc 1 353 12
	movl	$0, %eax
	jmp	.L61
.L53:
	.loc 1 356 6
	cmpq	$15, -392(%rbp)
	ja	.L54
	.loc 1 357 5
	movl	$357, %r8d
	leaq	.LC0(%rip), %rax
	movq	%rax, %rcx
	movl	$103, %edx
	movl	$0, %esi
	movl	$30, %edi
	call	aws_lc_0_38_0_ERR_put_error@PLT
	.loc 1 358 12
	movl	$0, %eax
	jmp	.L61
.L54:
	.loc 1 361 6
	cmpq	$12, 16(%rbp)
	je	.L55
	.loc 1 362 5
	movl	$362, %r8d
	leaq	.LC0(%rip), %rax
	movq	%rax, %rcx
	movl	$121, %edx
	movl	$0, %esi
	movl	$30, %edi
	call	aws_lc_0_38_0_ERR_put_error@PLT
	.loc 1 363 12
	movl	$0, %eax
	jmp	.L61
.L55:
	.loc 1 368 35
	movq	-8(%rbp), %rax
	movl	240(%rax), %eax
	.loc 1 368 3
	movq	-400(%rbp), %rdi
	leaq	-80(%rbp), %rcx
	leaq	-48(%rbp), %rdx
	movq	-8(%rbp), %rsi
	movq	%rdi, %r8
	movl	%eax, %edi
	call	aead_aes_gcm_siv_kdf
	.loc 1 371 23
	movq	$0, -96(%rbp)
	movq	$0, -88(%rbp)
	.loc 1 372 3
	leaq	-48(%rbp), %r8
	movq	64(%rbp), %rdi
	movq	56(%rbp), %rcx
	movq	32(%rbp), %rdx
	movq	24(%rbp), %rsi
	leaq	-96(%rbp), %rax
	subq	$8, %rsp
	pushq	-400(%rbp)
	movq	%r8, %r9
	movq	%rdi, %r8
	movq	%rax, %rdi
	call	gcm_siv_asm_polyval
	addq	$16, %rsp
	.loc 1 377 18
	movq	-8(%rbp), %rax
	movl	240(%rax), %eax
	.loc 1 377 6
	testl	%eax, %eax
	je	.L56
	.loc 1 378 5
	leaq	-80(%rbp), %rcx
	leaq	-352(%rbp), %rdx
	leaq	-96(%rbp), %rsi
	leaq	-96(%rbp), %rax
	movq	%rax, %rdi
	call	aws_lc_0_38_0_aes128gcmsiv_aes_ks_enc_x1@PLT
	.loc 1 381 8
	cmpq	$127, 32(%rbp)
	ja	.L57
	.loc 1 382 7
	movq	32(%rbp), %rax
	andq	$-16, %rax
	movq	%rax, %rdi
	leaq	-352(%rbp), %rcx
	leaq	-96(%rbp), %rdx
	movq	-368(%rbp), %rsi
	movq	24(%rbp), %rax
	movq	%rdi, %r8
	movq	%rax, %rdi
	call	aws_lc_0_38_0_aes128gcmsiv_enc_msg_x4@PLT
	jmp	.L58
.L57:
	.loc 1 384 7
	movq	32(%rbp), %rax
	andq	$-16, %rax
	movq	%rax, %rdi
	leaq	-352(%rbp), %rcx
	leaq	-96(%rbp), %rdx
	movq	-368(%rbp), %rsi
	movq	24(%rbp), %rax
	movq	%rdi, %r8
	movq	%rax, %rdi
	call	aws_lc_0_38_0_aes128gcmsiv_enc_msg_x8@PLT
	jmp	.L58
.L56:
	.loc 1 387 5
	leaq	-80(%rbp), %rcx
	leaq	-352(%rbp), %rdx
	leaq	-96(%rbp), %rsi
	leaq	-96(%rbp), %rax
	movq	%rax, %rdi
	call	aws_lc_0_38_0_aes256gcmsiv_aes_ks_enc_x1@PLT
	.loc 1 390 8
	cmpq	$127, 32(%rbp)
	ja	.L59
	.loc 1 391 7
	movq	32(%rbp), %rax
	andq	$-16, %rax
	movq	%rax, %rdi
	leaq	-352(%rbp), %rcx
	leaq	-96(%rbp), %rdx
	movq	-368(%rbp), %rsi
	movq	24(%rbp), %rax
	movq	%rdi, %r8
	movq	%rax, %rdi
	call	aws_lc_0_38_0_aes256gcmsiv_enc_msg_x4@PLT
	jmp	.L58
.L59:
	.loc 1 393 7
	movq	32(%rbp), %rax
	andq	$-16, %rax
	movq	%rax, %rdi
	leaq	-352(%rbp), %rcx
	leaq	-96(%rbp), %rdx
	movq	-368(%rbp), %rsi
	movq	24(%rbp), %rax
	movq	%rdi, %r8
	movq	%rax, %rdi
	call	aws_lc_0_38_0_aes256gcmsiv_enc_msg_x8@PLT
.L58:
	.loc 1 397 14
	movq	32(%rbp), %rax
	andl	$15, %eax
	.loc 1 397 6
	testq	%rax, %rax
	je	.L60
	.loc 1 398 54
	movq	-8(%rbp), %rax
	movl	240(%rax), %eax
	.loc 1 398 5
	leaq	-352(%rbp), %r8
	leaq	-96(%rbp), %rdi
	movq	32(%rbp), %rcx
	movq	24(%rbp), %rdx
	movq	-368(%rbp), %rsi
	movq	%r8, %r9
	movq	%rdi, %r8
	movl	%eax, %edi
	call	aead_aes_gcm_siv_asm_crypt_last_block
.L60:
	.loc 1 402 3
	leaq	-96(%rbp), %rcx
	movq	-376(%rbp), %rax
	movl	$16, %edx
	movq	%rcx, %rsi
	movq	%rax, %rdi
	call	OPENSSL_memcpy
	.loc 1 403 16
	movq	-384(%rbp), %rax
	movq	$16, (%rax)
	.loc 1 405 10
	movl	$1, %eax
.L61:
	.loc 1 406 1
	leave
	.cfi_def_cfa 7, 8
	ret
	.cfi_endproc
.LFE158:
	.size	aead_aes_gcm_siv_asm_seal_scatter, .-aead_aes_gcm_siv_asm_seal_scatter
	.section	.text.aead_aes_gcm_siv_asm_open_gather,"ax",@progbits
	.type	aead_aes_gcm_siv_asm_open_gather, @function
aead_aes_gcm_siv_asm_open_gather:
.LFB159:
	.loc 1 411 58
	.cfi_startproc
	pushq	%rbp
	.cfi_def_cfa_offset 16
	.cfi_offset 6, -16
	movq	%rsp, %rbp
	.cfi_def_cfa_register 6
	pushq	%rbx
	subq	$664, %rsp
	.cfi_offset 3, -24
	movq	%rdi, 40(%rsp)
	movq	%rsi, 32(%rsp)
	movq	%rdx, 24(%rsp)
	movq	%rcx, 16(%rsp)
	movq	%r8, 8(%rsp)
	movq	%r9, (%rsp)
	.loc 1 412 18
	movq	40(%rbp), %rax
	movq	%rax, 640(%rsp)
	.loc 1 413 6
	movabsq	$2305843009213693951, %rax
	cmpq	640(%rsp), %rax
	jnb	.L63
	.loc 1 414 5
	movl	$414, %r8d
	leaq	.LC0(%rip), %rax
	movq	%rax, %rcx
	movl	$117, %edx
	movl	$0, %esi
	movl	$30, %edi
	call	aws_lc_0_38_0_ERR_put_error@PLT
	.loc 1 415 12
	movl	$0, %eax
	jmp	.L80
.L63:
	.loc 1 418 18
	movq	(%rsp), %rax
	movq	%rax, 632(%rsp)
	.loc 1 419 6
	movabsq	$68719476736, %rax
	cmpq	632(%rsp), %rax
	jb	.L65
	.loc 1 419 37 discriminator 1
	cmpq	$16, 24(%rbp)
	je	.L66
.L65:
	.loc 1 421 5
	movl	$421, %r8d
	leaq	.LC0(%rip), %rax
	movq	%rax, %rcx
	movl	$101, %edx
	movl	$0, %esi
	movl	$30, %edi
	call	aws_lc_0_38_0_ERR_put_error@PLT
	.loc 1 422 12
	movl	$0, %eax
	jmp	.L80
.L66:
	.loc 1 425 6
	cmpq	$12, 16(%rsp)
	je	.L67
	.loc 1 426 5
	movl	$426, %r8d
	leaq	.LC0(%rip), %rax
	movq	%rax, %rcx
	movl	$121, %edx
	movl	$0, %esi
	movl	$30, %edi
	call	aws_lc_0_38_0_ERR_put_error@PLT
	.loc 1 427 12
	movl	$0, %eax
	jmp	.L80
.L67:
	.loc 1 430 56
	movq	40(%rsp), %rax
	movq	%rax, %rdi
	call	asm_ctx_from_ctx
	movq	%rax, 624(%rsp)
	.loc 1 431 5
	cmpq	$0, 624(%rsp)
	jne	.L68
	.loc 1 432 5
	movl	$432, %r8d
	leaq	.LC0(%rip), %rax
	movq	%rax, %rcx
	movl	$142, %edx
	movl	$0, %esi
	movl	$30, %edi
	call	aws_lc_0_38_0_ERR_put_error@PLT
	.loc 1 433 12
	movl	$0, %eax
	jmp	.L80
.L68:
	.loc 1 438 35
	movq	624(%rsp), %rax
	movl	240(%rax), %eax
	.loc 1 438 3
	movq	24(%rsp), %rdi
	leaq	560(%rsp), %rcx
	leaq	592(%rsp), %rdx
	movq	624(%rsp), %rsi
	movq	%rdi, %r8
	movl	%eax, %edi
	call	aead_aes_gcm_siv_kdf
	.loc 1 442 18
	movq	624(%rsp), %rax
	movl	240(%rax), %eax
	.loc 1 442 6
	testl	%eax, %eax
	je	.L69
	.loc 1 443 5
	leaq	304(%rsp), %rdx
	leaq	560(%rsp), %rax
	movq	%rdx, %rsi
	movq	%rax, %rdi
	call	aws_lc_0_38_0_aes128gcmsiv_aes_ks@PLT
	jmp	.L70
.L69:
	.loc 1 445 5
	leaq	304(%rsp), %rdx
	leaq	560(%rsp), %rax
	movq	%rdx, %rsi
	movq	%rax, %rdi
	call	aws_lc_0_38_0_aes256gcmsiv_aes_ks@PLT
.L70:
	.loc 1 449 23
	vpxor	%xmm0, %xmm0, %xmm0
	vmovdqu	%ymm0, 176(%rsp)
	vpxor	%xmm0, %xmm0, %xmm0
	vmovdqu	%ymm0, 208(%rsp)
	vpxor	%xmm0, %xmm0, %xmm0
	vmovdqu	%ymm0, 240(%rsp)
	vpxor	%xmm0, %xmm0, %xmm0
	vmovdqu	%ymm0, 272(%rsp)
	.loc 1 451 3
	leaq	176(%rsp), %rax
	movl	$16, %edx
	movl	$0, %esi
	movq	%rax, %rdi
	call	OPENSSL_memset
	.loc 1 452 16
	movq	40(%rbp), %rax
	shrq	$4, %rax
	movq	%rax, 616(%rsp)
	.loc 1 453 3
	movq	616(%rsp), %rcx
	movq	32(%rbp), %rdx
	leaq	592(%rsp), %rsi
	leaq	176(%rsp), %rax
	movq	%rax, %rdi
	call	aws_lc_0_38_0_aesgcmsiv_polyval_horner@PLT
	.loc 1 457 14
	movq	40(%rbp), %rax
	andl	$15, %eax
	.loc 1 457 6
	testq	%rax, %rax
	je	.L71
	.loc 1 458 5
	leaq	160(%rsp), %rax
	movl	$16, %edx
	movl	$0, %esi
	movq	%rax, %rdi
	call	OPENSSL_memset
	.loc 1 459 5
	movq	40(%rbp), %rax
	andl	$15, %eax
	movq	%rax, %rdx
	.loc 1 459 40
	movq	40(%rbp), %rax
	andq	$-16, %rax
	movq	%rax, %rcx
	.loc 1 459 29
	movq	32(%rbp), %rax
	addq	%rax, %rcx
	.loc 1 459 5
	leaq	160(%rsp), %rax
	movq	%rcx, %rsi
	movq	%rax, %rdi
	call	OPENSSL_memcpy
	.loc 1 460 5
	leaq	160(%rsp), %rdx
	leaq	592(%rsp), %rsi
	leaq	176(%rsp), %rax
	movl	$1, %ecx
	movq	%rax, %rdi
	call	aws_lc_0_38_0_aesgcmsiv_polyval_horner@PLT
.L71:
	.loc 1 465 3
	leaq	592(%rsp), %rdx
	leaq	64(%rsp), %rax
	movq	%rdx, %rsi
	movq	%rax, %rdi
	call	aws_lc_0_38_0_aesgcmsiv_htable6_init@PLT
	.loc 1 469 3
	leaq	176(%rsp), %rax
	addq	$16, %rax
	movq	16(%rbp), %rdx
	movq	(%rdx), %rcx
	movq	8(%rdx), %rbx
	movq	%rcx, (%rax)
	movq	%rbx, 8(%rax)
	.loc 1 470 18
	movq	624(%rsp), %rax
	movl	240(%rax), %eax
	.loc 1 470 6
	testl	%eax, %eax
	je	.L72
	.loc 1 471 5
	movq	(%rsp), %r8
	leaq	304(%rsp), %rdi
	leaq	64(%rsp), %rcx
	leaq	176(%rsp), %rdx
	movq	32(%rsp), %rsi
	movq	8(%rsp), %rax
	movq	%r8, %r9
	movq	%rdi, %r8
	movq	%rax, %rdi
	call	aws_lc_0_38_0_aes128gcmsiv_dec@PLT
	jmp	.L73
.L72:
	.loc 1 473 5
	movq	(%rsp), %r8
	leaq	304(%rsp), %rdi
	leaq	64(%rsp), %rcx
	leaq	176(%rsp), %rdx
	movq	32(%rsp), %rsi
	movq	8(%rsp), %rax
	movq	%r8, %r9
	movq	%rdi, %r8
	movq	%rax, %rdi
	call	aws_lc_0_38_0_aes256gcmsiv_dec@PLT
.L73:
	.loc 1 476 14
	movq	(%rsp), %rax
	andl	$15, %eax
	.loc 1 476 6
	testq	%rax, %rax
	je	.L74
	.loc 1 477 54
	movq	624(%rsp), %rax
	movl	240(%rax), %eax
	.loc 1 477 5
	leaq	304(%rsp), %r8
	movq	16(%rbp), %rdi
	movq	(%rsp), %rcx
	movq	8(%rsp), %rdx
	movq	32(%rsp), %rsi
	movq	%r8, %r9
	movq	%rdi, %r8
	movl	%eax, %edi
	call	aead_aes_gcm_siv_asm_crypt_last_block
	.loc 1 479 5
	leaq	160(%rsp), %rax
	movl	$16, %edx
	movl	$0, %esi
	movq	%rax, %rdi
	call	OPENSSL_memset
	.loc 1 480 5
	movq	(%rsp), %rax
	andl	$15, %eax
	movq	%rax, %rdx
	.loc 1 480 43
	movq	(%rsp), %rax
	andq	$-16, %rax
	movq	%rax, %rcx
	.loc 1 480 33
	movq	32(%rsp), %rax
	addq	%rax, %rcx
	.loc 1 480 5
	leaq	160(%rsp), %rax
	movq	%rcx, %rsi
	movq	%rax, %rdi
	call	OPENSSL_memcpy
	.loc 1 481 5
	leaq	160(%rsp), %rdx
	leaq	592(%rsp), %rsi
	leaq	176(%rsp), %rax
	movl	$1, %ecx
	movq	%rax, %rdi
	call	aws_lc_0_38_0_aesgcmsiv_polyval_horner@PLT
.L74:
	.loc 1 486 3
	movq	40(%rbp), %rax
	leaq	0(,%rax,8), %rdx
	leaq	48(%rsp), %rax
	movq	%rdx, %rsi
	movq	%rax, %rdi
	call	CRYPTO_store_u64_le
	.loc 1 487 3
	movq	(%rsp), %rax
	leaq	0(,%rax,8), %rdx
	leaq	48(%rsp), %rax
	addq	$8, %rax
	movq	%rdx, %rsi
	movq	%rax, %rdi
	call	CRYPTO_store_u64_le
	.loc 1 488 3
	leaq	48(%rsp), %rdx
	leaq	592(%rsp), %rsi
	leaq	176(%rsp), %rax
	movl	$1, %ecx
	movq	%rax, %rdi
	call	aws_lc_0_38_0_aesgcmsiv_polyval_horner@PLT
.LBB4:
	.loc 1 491 15
	movq	$0, 648(%rsp)
	.loc 1 491 3
	jmp	.L75
.L76:
	.loc 1 492 19
	leaq	176(%rsp), %rdx
	movq	648(%rsp), %rax
	addq	%rdx, %rax
	movzbl	(%rax), %ecx
	.loc 1 492 31
	movq	24(%rsp), %rdx
	movq	648(%rsp), %rax
	addq	%rdx, %rax
	movzbl	(%rax), %eax
	.loc 1 492 23
	xorl	%eax, %ecx
	movl	%ecx, %edx
	leaq	176(%rsp), %rcx
	movq	648(%rsp), %rax
	addq	%rcx, %rax
	movb	%dl, (%rax)
	.loc 1 491 31 discriminator 3
	addq	$1, 648(%rsp)
.L75:
	.loc 1 491 24 discriminator 1
	cmpq	$11, 648(%rsp)
	jbe	.L76
.LBE4:
	.loc 1 495 17
	movzbl	191(%rsp), %eax
	.loc 1 495 22
	andl	$127, %eax
	movb	%al, 191(%rsp)
	.loc 1 497 18
	movq	624(%rsp), %rax
	movl	240(%rax), %eax
	.loc 1 497 6
	testl	%eax, %eax
	je	.L77
	.loc 1 498 5
	leaq	304(%rsp), %rdx
	leaq	176(%rsp), %rcx
	leaq	176(%rsp), %rax
	movq	%rcx, %rsi
	movq	%rax, %rdi
	call	aws_lc_0_38_0_aes128gcmsiv_ecb_enc_block@PLT
	jmp	.L78
.L77:
	.loc 1 500 5
	leaq	304(%rsp), %rdx
	leaq	176(%rsp), %rcx
	leaq	176(%rsp), %rax
	movq	%rcx, %rsi
	movq	%rax, %rdi
	call	aws_lc_0_38_0_aes256gcmsiv_ecb_enc_block@PLT
.L78:
	.loc 1 503 7
	movq	16(%rbp), %rcx
	leaq	176(%rsp), %rax
	movl	$16, %edx
	movq	%rcx, %rsi
	movq	%rax, %rdi
	call	aws_lc_0_38_0_CRYPTO_memcmp@PLT
	.loc 1 503 6 discriminator 1
	testl	%eax, %eax
	je	.L79
	.loc 1 505 5
	movl	$505, %r8d
	leaq	.LC0(%rip), %rax
	movq	%rax, %rcx
	movl	$101, %edx
	movl	$0, %esi
	movl	$30, %edi
	call	aws_lc_0_38_0_ERR_put_error@PLT
	.loc 1 506 12
	movl	$0, %eax
	jmp	.L80
.L79:
	.loc 1 509 10
	movl	$1, %eax
.L80:
	.loc 1 510 1
	movq	-8(%rbp), %rbx
	leave
	.cfi_def_cfa 7, 8
	ret
	.cfi_endproc
.LFE159:
	.size	aead_aes_gcm_siv_asm_open_gather, .-aead_aes_gcm_siv_asm_open_gather
	.section	.data.rel.ro.local.aead_aes_128_gcm_siv_asm,"aw"
	.align 32
	.type	aead_aes_128_gcm_siv_asm, @object
	.size	aead_aes_128_gcm_siv_asm, 96
aead_aes_128_gcm_siv_asm:
	.byte	16
	.byte	12
	.byte	16
	.byte	16
	.value	3
	.zero	2
	.long	0
	.zero	4
	.quad	aead_aes_gcm_siv_asm_init
	.quad	0
	.quad	aead_aes_gcm_siv_asm_cleanup
	.quad	0
	.quad	aead_aes_gcm_siv_asm_seal_scatter
	.quad	aead_aes_gcm_siv_asm_open_gather
	.quad	0
	.quad	0
	.quad	0
	.quad	0
	.section	.data.rel.ro.local.aead_aes_256_gcm_siv_asm,"aw"
	.align 32
	.type	aead_aes_256_gcm_siv_asm, @object
	.size	aead_aes_256_gcm_siv_asm, 96
aead_aes_256_gcm_siv_asm:
	.byte	32
	.byte	12
	.byte	16
	.byte	16
	.value	4
	.zero	2
	.long	0
	.zero	4
	.quad	aead_aes_gcm_siv_asm_init
	.quad	0
	.quad	aead_aes_gcm_siv_asm_cleanup
	.quad	0
	.quad	aead_aes_gcm_siv_asm_seal_scatter
	.quad	aead_aes_gcm_siv_asm_open_gather
	.quad	0
	.quad	0
	.quad	0
	.quad	0
	.section	.text.aead_aes_gcm_siv_init,"ax",@progbits
	.type	aead_aes_gcm_siv_init, @function
aead_aes_gcm_siv_init:
.LFB160:
	.loc 1 571 66
	.cfi_startproc
	pushq	%rbp
	.cfi_def_cfa_offset 16
	.cfi_offset 6, -16
	movq	%rsp, %rbp
	.cfi_def_cfa_register 6
	subq	$48, %rsp
	movq	%rdi, -24(%rbp)
	movq	%rsi, -32(%rbp)
	movq	%rdx, -40(%rbp)
	movq	%rcx, -48(%rbp)
	.loc 1 572 16
	movq	-40(%rbp), %rax
	salq	$3, %rax
	movq	%rax, -8(%rbp)
	.loc 1 574 6
	cmpq	$128, -8(%rbp)
	je	.L82
	.loc 1 574 23 discriminator 1
	cmpq	$256, -8(%rbp)
	je	.L82
	.loc 1 575 5
	movl	$575, %r8d
	leaq	.LC0(%rip), %rax
	movq	%rax, %rcx
	movl	$102, %edx
	movl	$0, %esi
	movl	$30, %edi
	call	aws_lc_0_38_0_ERR_put_error@PLT
	.loc 1 576 12
	movl	$0, %eax
	jmp	.L83
.L82:
	.loc 1 579 6
	cmpq	$0, -48(%rbp)
	jne	.L84
	.loc 1 580 13
	movq	$16, -48(%rbp)
.L84:
	.loc 1 582 6
	cmpq	$16, -48(%rbp)
	je	.L85
	.loc 1 583 5
	movl	$583, %r8d
	leaq	.LC0(%rip), %rax
	movq	%rax, %rcx
	movl	$116, %edx
	movl	$0, %esi
	movl	$30, %edi
	call	aws_lc_0_38_0_ERR_put_error@PLT
	.loc 1 584 12
	movl	$0, %eax
	jmp	.L83
.L85:
	.loc 1 587 32
	movq	-24(%rbp), %rax
	addq	$8, %rax
	movq	%rax, -16(%rbp)
	.loc 1 589 3
	movq	-16(%rbp), %rax
	movl	$264, %edx
	movl	$0, %esi
	movq	%rax, %rdi
	call	OPENSSL_memset
	.loc 1 591 3
	movq	-16(%rbp), %rax
	leaq	248(%rax), %rsi
	movq	-16(%rbp), %rax
	movq	-40(%rbp), %rcx
	movq	-32(%rbp), %rdx
	movq	%rcx, %r8
	movq	%rdx, %rcx
	movq	%rsi, %rdx
	movl	$0, %esi
	movq	%rax, %rdi
	call	aws_lc_0_38_0_aes_ctr_set_key@PLT
	.loc 1 593 34
	cmpq	$32, -40(%rbp)
	sete	%dl
	.loc 1 593 23
	movq	-16(%rbp), %rax
	movl	%edx, %ecx
	andl	$1, %ecx
	movzbl	256(%rax), %edx
	andl	$-2, %edx
	orl	%ecx, %edx
	movb	%dl, 256(%rax)
	.loc 1 594 16
	movq	-48(%rbp), %rax
	movl	%eax, %edx
	movq	-24(%rbp), %rax
	movb	%dl, 577(%rax)
	.loc 1 596 10
	movl	$1, %eax
.L83:
	.loc 1 597 1
	leave
	.cfi_def_cfa 7, 8
	ret
	.cfi_endproc
.LFE160:
	.size	aead_aes_gcm_siv_init, .-aead_aes_gcm_siv_init
	.section	.text.aead_aes_gcm_siv_cleanup,"ax",@progbits
	.type	aead_aes_gcm_siv_cleanup, @function
aead_aes_gcm_siv_cleanup:
.LFB161:
	.loc 1 599 57
	.cfi_startproc
	pushq	%rbp
	.cfi_def_cfa_offset 16
	.cfi_offset 6, -16
	movq	%rsp, %rbp
	.cfi_def_cfa_register 6
	movq	%rdi, -8(%rbp)
	.loc 1 599 58
	nop
	popq	%rbp
	.cfi_def_cfa 7, 8
	ret
	.cfi_endproc
.LFE161:
	.size	aead_aes_gcm_siv_cleanup, .-aead_aes_gcm_siv_cleanup
	.section	.text.gcm_siv_crypt,"ax",@progbits
	.type	gcm_siv_crypt, @function
gcm_siv_crypt:
.LFB162:
	.loc 1 610 69
	.cfi_startproc
	pushq	%rbp
	.cfi_def_cfa_offset 16
	.cfi_offset 6, -16
	movq	%rsp, %rbp
	.cfi_def_cfa_register 6
	subq	$112, %rsp
	movq	%rdi, -72(%rbp)
	movq	%rsi, -80(%rbp)
	movq	%rdx, -88(%rbp)
	movq	%rcx, -96(%rbp)
	movq	%r8, -104(%rbp)
	movq	%r9, -112(%rbp)
	.loc 1 613 3
	movq	-96(%rbp), %rcx
	leaq	-48(%rbp), %rax
	movl	$16, %edx
	movq	%rcx, %rsi
	movq	%rax, %rdi
	call	OPENSSL_memcpy
	.loc 1 614 10
	movzbl	-33(%rbp), %eax
	.loc 1 614 15
	orl	$-128, %eax
	movb	%al, -33(%rbp)
.LBB5:
	.loc 1 616 15
	movq	$0, -8(%rbp)
	.loc 1 616 3
	jmp	.L88
.L92:
.LBB6:
	.loc 1 618 5
	movq	-112(%rbp), %rdx
	leaq	-64(%rbp), %rcx
	leaq	-48(%rbp), %rax
	movq	-104(%rbp), %r8
	movq	%rcx, %rsi
	movq	%rax, %rdi
	call	*%r8
.LVL0:
	.loc 1 619 34
	leaq	-48(%rbp), %rax
	movq	%rax, %rdi
	call	CRYPTO_load_u32_le
	.loc 1 619 5 discriminator 1
	leal	1(%rax), %edx
	leaq	-48(%rbp), %rax
	movl	%edx, %esi
	movq	%rax, %rdi
	call	CRYPTO_store_u32_le
	.loc 1 621 12
	movq	$16, -16(%rbp)
	.loc 1 622 16
	movq	-88(%rbp), %rax
	subq	-8(%rbp), %rax
	.loc 1 622 8
	cmpq	-16(%rbp), %rax
	jnb	.L89
	.loc 1 623 12
	movq	-88(%rbp), %rax
	subq	-8(%rbp), %rax
	movq	%rax, -16(%rbp)
.L89:
.LBB7:
	.loc 1 626 17
	movq	$0, -24(%rbp)
	.loc 1 626 5
	jmp	.L90
.L91:
	.loc 1 627 32
	leaq	-64(%rbp), %rdx
	movq	-24(%rbp), %rax
	addq	%rdx, %rax
	movzbl	(%rax), %esi
	.loc 1 627 46
	movq	-8(%rbp), %rdx
	movq	-24(%rbp), %rax
	addq	%rax, %rdx
	.loc 1 627 40
	movq	-80(%rbp), %rax
	addq	%rdx, %rax
	movzbl	(%rax), %ecx
	.loc 1 627 16
	movq	-8(%rbp), %rdx
	movq	-24(%rbp), %rax
	addq	%rax, %rdx
	.loc 1 627 10
	movq	-72(%rbp), %rax
	addq	%rdx, %rax
	.loc 1 627 21
	xorl	%ecx, %esi
	movl	%esi, %edx
	movb	%dl, (%rax)
	.loc 1 626 35 discriminator 3
	addq	$1, -24(%rbp)
.L90:
	.loc 1 626 26 discriminator 1
	movq	-24(%rbp), %rax
	cmpq	-16(%rbp), %rax
	jb	.L91
.LBE7:
	.loc 1 630 10
	movq	-16(%rbp), %rax
	addq	%rax, -8(%rbp)
.L88:
.LBE6:
	.loc 1 616 30 discriminator 1
	movq	-8(%rbp), %rax
	cmpq	-88(%rbp), %rax
	jb	.L92
.LBE5:
	.loc 1 632 1
	nop
	nop
	leave
	.cfi_def_cfa 7, 8
	ret
	.cfi_endproc
.LFE162:
	.size	gcm_siv_crypt, .-gcm_siv_crypt
	.section	.text.gcm_siv_polyval,"ax",@progbits
	.type	gcm_siv_polyval, @function
gcm_siv_polyval:
.LFB163:
	.loc 1 639 58
	.cfi_startproc
	pushq	%rbp
	.cfi_def_cfa_offset 16
	.cfi_offset 6, -16
	movq	%rsp, %rbp
	.cfi_def_cfa_register 6
	subq	$384, %rsp
	movq	%rdi, -344(%rbp)
	movq	%rsi, -352(%rbp)
	movq	%rdx, -360(%rbp)
	movq	%rcx, -368(%rbp)
	movq	%r8, -376(%rbp)
	movq	%r9, -384(%rbp)
	.loc 1 641 3
	movq	-384(%rbp), %rdx
	leaq	-304(%rbp), %rax
	movq	%rdx, %rsi
	movq	%rax, %rdi
	call	aws_lc_0_38_0_CRYPTO_POLYVAL_init@PLT
	.loc 1 643 3
	movq	-376(%rbp), %rax
	andq	$-16, %rax
	movq	%rax, %rdx
	movq	-368(%rbp), %rcx
	leaq	-304(%rbp), %rax
	movq	%rcx, %rsi
	movq	%rax, %rdi
	call	aws_lc_0_38_0_CRYPTO_POLYVAL_update_blocks@PLT
	.loc 1 646 14
	movq	-376(%rbp), %rax
	andl	$15, %eax
	.loc 1 646 6
	testq	%rax, %rax
	je	.L94
	.loc 1 647 5
	leaq	-320(%rbp), %rax
	movl	$16, %edx
	movl	$0, %esi
	movq	%rax, %rdi
	call	OPENSSL_memset
	.loc 1 648 5
	movq	-376(%rbp), %rax
	andl	$15, %eax
	movq	%rax, %rdx
	.loc 1 648 40
	movq	-376(%rbp), %rax
	andq	$-16, %rax
	movq	%rax, %rcx
	.loc 1 648 29
	movq	-368(%rbp), %rax
	addq	%rax, %rcx
	.loc 1 648 5
	leaq	-320(%rbp), %rax
	movq	%rcx, %rsi
	movq	%rax, %rdi
	call	OPENSSL_memcpy
	.loc 1 649 5
	leaq	-320(%rbp), %rcx
	leaq	-304(%rbp), %rax
	movl	$16, %edx
	movq	%rcx, %rsi
	movq	%rax, %rdi
	call	aws_lc_0_38_0_CRYPTO_POLYVAL_update_blocks@PLT
.L94:
	.loc 1 652 3
	movq	-360(%rbp), %rax
	andq	$-16, %rax
	movq	%rax, %rdx
	movq	-352(%rbp), %rcx
	leaq	-304(%rbp), %rax
	movq	%rcx, %rsi
	movq	%rax, %rdi
	call	aws_lc_0_38_0_CRYPTO_POLYVAL_update_blocks@PLT
	.loc 1 653 14
	movq	-360(%rbp), %rax
	andl	$15, %eax
	.loc 1 653 6
	testq	%rax, %rax
	je	.L95
	.loc 1 654 5
	leaq	-320(%rbp), %rax
	movl	$16, %edx
	movl	$0, %esi
	movq	%rax, %rdi
	call	OPENSSL_memset
	.loc 1 655 5
	movq	-360(%rbp), %rax
	andl	$15, %eax
	movq	%rax, %rdx
	.loc 1 655 40
	movq	-360(%rbp), %rax
	andq	$-16, %rax
	movq	%rax, %rcx
	.loc 1 655 29
	movq	-352(%rbp), %rax
	addq	%rax, %rcx
	.loc 1 655 5
	leaq	-320(%rbp), %rax
	movq	%rcx, %rsi
	movq	%rax, %rdi
	call	OPENSSL_memcpy
	.loc 1 656 5
	leaq	-320(%rbp), %rcx
	leaq	-304(%rbp), %rax
	movl	$16, %edx
	movq	%rcx, %rsi
	movq	%rax, %rdi
	call	aws_lc_0_38_0_CRYPTO_POLYVAL_update_blocks@PLT
.L95:
	.loc 1 660 3
	movq	-376(%rbp), %rax
	leaq	0(,%rax,8), %rdx
	leaq	-336(%rbp), %rax
	movq	%rdx, %rsi
	movq	%rax, %rdi
	call	CRYPTO_store_u64_le
	.loc 1 661 3
	movq	-360(%rbp), %rax
	leaq	0(,%rax,8), %rdx
	leaq	-336(%rbp), %rax
	addq	$8, %rax
	movq	%rdx, %rsi
	movq	%rax, %rdi
	call	CRYPTO_store_u64_le
	.loc 1 662 3
	leaq	-336(%rbp), %rcx
	leaq	-304(%rbp), %rax
	movl	$16, %edx
	movq	%rcx, %rsi
	movq	%rax, %rdi
	call	aws_lc_0_38_0_CRYPTO_POLYVAL_update_blocks@PLT
	.loc 1 665 3
	movq	-344(%rbp), %rdx
	leaq	-304(%rbp), %rax
	movq	%rdx, %rsi
	movq	%rax, %rdi
	call	aws_lc_0_38_0_CRYPTO_POLYVAL_finish@PLT
.LBB8:
	.loc 1 666 15
	movq	$0, -8(%rbp)
	.loc 1 666 3
	jmp	.L96
.L97:
	.loc 1 667 12
	movq	-344(%rbp), %rdx
	movq	-8(%rbp), %rax
	addq	%rdx, %rax
	movzbl	(%rax), %esi
	.loc 1 667 24
	movq	16(%rbp), %rdx
	movq	-8(%rbp), %rax
	addq	%rdx, %rax
	movzbl	(%rax), %ecx
	.loc 1 667 12
	movq	-344(%rbp), %rdx
	movq	-8(%rbp), %rax
	addq	%rdx, %rax
	.loc 1 667 16
	xorl	%ecx, %esi
	movl	%esi, %edx
	movb	%dl, (%rax)
	.loc 1 666 59 discriminator 3
	addq	$1, -8(%rbp)
.L96:
	.loc 1 666 24 discriminator 1
	cmpq	$11, -8(%rbp)
	jbe	.L97
.LBE8:
	.loc 1 669 10
	movq	-344(%rbp), %rax
	addq	$15, %rax
	movzbl	(%rax), %edx
	movq	-344(%rbp), %rax
	addq	$15, %rax
	.loc 1 669 15
	andl	$127, %edx
	movb	%dl, (%rax)
	.loc 1 670 1
	nop
	leave
	.cfi_def_cfa 7, 8
	ret
	.cfi_endproc
.LFE163:
	.size	gcm_siv_polyval, .-gcm_siv_polyval
	.section	.text.gcm_siv_keys,"ax",@progbits
	.type	gcm_siv_keys, @function
gcm_siv_keys:
.LFB164:
	.loc 1 686 79
	.cfi_startproc
	pushq	%rbp
	.cfi_def_cfa_offset 16
	.cfi_offset 6, -16
	movq	%rsp, %rbp
	.cfi_def_cfa_register 6
	subq	$144, %rsp
	movq	%rdi, -120(%rbp)
	movq	%rsi, -128(%rbp)
	movq	%rdx, -136(%rbp)
	.loc 1 687 24
	movq	-120(%rbp), %rax
	movq	%rax, -16(%rbp)
	.loc 1 689 52
	movq	-120(%rbp), %rax
	movzbl	256(%rax), %eax
	andl	$1, %eax
	.loc 1 689 56
	testb	%al, %al
	je	.L99
	.loc 1 689 56 is_stmt 0 discriminator 1
	movl	$6, %eax
	jmp	.L100
.L99:
	.loc 1 689 56 discriminator 2
	movl	$4, %eax
.L100:
	.loc 1 689 16 is_stmt 1 discriminator 4
	movq	%rax, -24(%rbp)
	.loc 1 692 3
	leaq	-96(%rbp), %rax
	movl	$4, %edx
	movl	$0, %esi
	movq	%rax, %rdi
	call	OPENSSL_memset
	.loc 1 693 3
	leaq	-96(%rbp), %rax
	addq	$4, %rax
	movq	-136(%rbp), %rcx
	movl	$12, %edx
	movq	%rcx, %rsi
	movq	%rax, %rdi
	call	OPENSSL_memcpy
.LBB9:
	.loc 1 695 15
	movq	$0, -8(%rbp)
	.loc 1 695 3
	jmp	.L101
.L102:
.LBB10:
	.loc 1 696 16
	movq	-8(%rbp), %rax
	movb	%al, -96(%rbp)
	.loc 1 699 16
	movq	-120(%rbp), %rax
	movq	248(%rax), %r8
	.loc 1 699 5
	movq	-16(%rbp), %rdx
	leaq	-112(%rbp), %rcx
	leaq	-96(%rbp), %rax
	movq	%rcx, %rsi
	movq	%rax, %rdi
	call	*%r8
.LVL1:
	.loc 1 700 36
	movq	-8(%rbp), %rax
	leaq	0(,%rax,8), %rdx
	.loc 1 700 20
	leaq	-80(%rbp), %rax
	leaq	(%rax,%rdx), %rcx
	.loc 1 700 5
	leaq	-112(%rbp), %rax
	movl	$8, %edx
	movq	%rax, %rsi
	movq	%rcx, %rdi
	call	OPENSSL_memcpy
.LBE10:
	.loc 1 695 42 discriminator 3
	addq	$1, -8(%rbp)
.L101:
	.loc 1 695 24 discriminator 1
	movq	-8(%rbp), %rax
	cmpq	-24(%rbp), %rax
	jb	.L102
.LBE9:
	.loc 1 703 26
	movq	-128(%rbp), %rax
	.loc 1 703 3
	leaq	-80(%rbp), %rcx
	movl	$16, %edx
	movq	%rcx, %rsi
	movq	%rax, %rdi
	call	OPENSSL_memcpy
	.loc 1 713 58
	movq	-120(%rbp), %rax
	movzbl	256(%rax), %eax
	andl	$1, %eax
	.loc 1 712 3
	testb	%al, %al
	je	.L103
	.loc 1 712 3 is_stmt 0 discriminator 1
	movl	$32, %esi
	jmp	.L104
.L103:
	.loc 1 712 3 discriminator 2
	movl	$16, %esi
.L104:
	.loc 1 712 3 discriminator 4
	leaq	-80(%rbp), %rax
	addq	$16, %rax
	movq	-128(%rbp), %rdx
	addq	$264, %rdx
	movq	-128(%rbp), %rcx
	leaq	16(%rcx), %rdi
	movq	%rsi, %r8
	movq	%rax, %rcx
	movl	$0, %esi
	call	aws_lc_0_38_0_aes_ctr_set_key@PLT
	.loc 1 714 1 is_stmt 1
	nop
	leave
	.cfi_def_cfa 7, 8
	ret
	.cfi_endproc
.LFE164:
	.size	gcm_siv_keys, .-gcm_siv_keys
	.section	.text.aead_aes_gcm_siv_seal_scatter,"ax",@progbits
	.type	aead_aes_gcm_siv_seal_scatter, @function
aead_aes_gcm_siv_seal_scatter:
.LFB165:
	.loc 1 720 60
	.cfi_startproc
	pushq	%rbp
	.cfi_def_cfa_offset 16
	.cfi_offset 6, -16
	movq	%rsp, %rbp
	.cfi_def_cfa_register 6
	subq	$368, %rsp
	movq	%rdi, -328(%rbp)
	movq	%rsi, -336(%rbp)
	movq	%rdx, -344(%rbp)
	movq	%rcx, -352(%rbp)
	movq	%r8, -360(%rbp)
	movq	%r9, -368(%rbp)
	.loc 1 721 38
	movq	-328(%rbp), %rax
	addq	$8, %rax
	movq	%rax, -8(%rbp)
	.loc 1 723 18
	movq	32(%rbp), %rax
	movq	%rax, -16(%rbp)
	.loc 1 724 18
	movq	64(%rbp), %rax
	movq	%rax, -24(%rbp)
	.loc 1 726 6
	cmpq	$-17, 32(%rbp)
	ja	.L106
	.loc 1 726 54 discriminator 1
	movabsq	$68719476736, %rax
	cmpq	-16(%rbp), %rax
	jb	.L106
	.loc 1 727 39
	movabsq	$2305843009213693951, %rax
	cmpq	-24(%rbp), %rax
	jnb	.L107
.L106:
	.loc 1 728 5
	movl	$728, %r8d
	leaq	.LC0(%rip), %rax
	movq	%rax, %rcx
	movl	$117, %edx
	movl	$0, %esi
	movl	$30, %edi
	call	aws_lc_0_38_0_ERR_put_error@PLT
	.loc 1 729 12
	movl	$0, %eax
	jmp	.L111
.L107:
	.loc 1 732 6
	cmpq	$15, -360(%rbp)
	ja	.L109
	.loc 1 733 5
	movl	$733, %r8d
	leaq	.LC0(%rip), %rax
	movq	%rax, %rcx
	movl	$103, %edx
	movl	$0, %esi
	movl	$30, %edi
	call	aws_lc_0_38_0_ERR_put_error@PLT
	.loc 1 734 12
	movl	$0, %eax
	jmp	.L111
.L109:
	.loc 1 737 6
	cmpq	$12, 16(%rbp)
	je	.L110
	.loc 1 738 5
	movl	$738, %r8d
	leaq	.LC0(%rip), %rax
	movq	%rax, %rcx
	movl	$121, %edx
	movl	$0, %esi
	movl	$30, %edi
	call	aws_lc_0_38_0_ERR_put_error@PLT
	.loc 1 739 12
	movl	$0, %eax
	jmp	.L111
.L110:
	.loc 1 743 3
	movq	-368(%rbp), %rdx
	leaq	-304(%rbp), %rcx
	movq	-8(%rbp), %rax
	movq	%rcx, %rsi
	movq	%rax, %rdi
	call	gcm_siv_keys
	.loc 1 746 3
	leaq	-304(%rbp), %r8
	movq	64(%rbp), %rdi
	movq	56(%rbp), %rcx
	movq	32(%rbp), %rdx
	movq	24(%rbp), %rsi
	leaq	-320(%rbp), %rax
	subq	$8, %rsp
	pushq	-368(%rbp)
	movq	%r8, %r9
	movq	%rdi, %r8
	movq	%rax, %rdi
	call	gcm_siv_polyval
	addq	$16, %rsp
	.loc 1 747 7
	movq	-40(%rbp), %r8
	.loc 1 747 3
	leaq	-304(%rbp), %rax
	leaq	16(%rax), %rdx
	leaq	-320(%rbp), %rcx
	leaq	-320(%rbp), %rax
	movq	%rcx, %rsi
	movq	%rax, %rdi
	call	*%r8
.LVL2:
	.loc 1 749 3
	movq	-40(%rbp), %rdi
	leaq	-304(%rbp), %rax
	leaq	16(%rax), %r8
	leaq	-320(%rbp), %rcx
	movq	32(%rbp), %rdx
	movq	24(%rbp), %rsi
	movq	-336(%rbp), %rax
	movq	%r8, %r9
	movq	%rdi, %r8
	movq	%rax, %rdi
	call	gcm_siv_crypt
	.loc 1 751 3
	leaq	-320(%rbp), %rcx
	movq	-344(%rbp), %rax
	movl	$16, %edx
	movq	%rcx, %rsi
	movq	%rax, %rdi
	call	OPENSSL_memcpy
	.loc 1 752 16
	movq	-352(%rbp), %rax
	movq	$16, (%rax)
	.loc 1 754 10
	movl	$1, %eax
.L111:
	.loc 1 755 1
	leave
	.cfi_def_cfa 7, 8
	ret
	.cfi_endproc
.LFE165:
	.size	aead_aes_gcm_siv_seal_scatter, .-aead_aes_gcm_siv_seal_scatter
	.section	.text.aead_aes_gcm_siv_open_gather,"ax",@progbits
	.type	aead_aes_gcm_siv_open_gather, @function
aead_aes_gcm_siv_open_gather:
.LFB166:
	.loc 1 762 56
	.cfi_startproc
	pushq	%rbp
	.cfi_def_cfa_offset 16
	.cfi_offset 6, -16
	movq	%rsp, %rbp
	.cfi_def_cfa_register 6
	subq	$368, %rsp
	movq	%rdi, -328(%rbp)
	movq	%rsi, -336(%rbp)
	movq	%rdx, -344(%rbp)
	movq	%rcx, -352(%rbp)
	movq	%r8, -360(%rbp)
	movq	%r9, -368(%rbp)
	.loc 1 763 18
	movq	40(%rbp), %rax
	movq	%rax, -8(%rbp)
	.loc 1 764 6
	movabsq	$2305843009213693951, %rax
	cmpq	-8(%rbp), %rax
	jnb	.L113
	.loc 1 765 5
	movl	$765, %r8d
	leaq	.LC0(%rip), %rax
	movq	%rax, %rcx
	movl	$117, %edx
	movl	$0, %esi
	movl	$30, %edi
	call	aws_lc_0_38_0_ERR_put_error@PLT
	.loc 1 766 12
	movl	$0, %eax
	jmp	.L119
.L113:
	.loc 1 769 18
	movq	-368(%rbp), %rax
	movq	%rax, -16(%rbp)
	.loc 1 770 6
	cmpq	$16, 24(%rbp)
	jne	.L115
	.loc 1 770 50 discriminator 1
	movabsq	$68719476752, %rax
	cmpq	-16(%rbp), %rax
	jnb	.L116
.L115:
	.loc 1 772 5
	movl	$772, %r8d
	leaq	.LC0(%rip), %rax
	movq	%rax, %rcx
	movl	$101, %edx
	movl	$0, %esi
	movl	$30, %edi
	call	aws_lc_0_38_0_ERR_put_error@PLT
	.loc 1 773 12
	movl	$0, %eax
	jmp	.L119
.L116:
	.loc 1 776 6
	cmpq	$12, -352(%rbp)
	je	.L117
	.loc 1 777 5
	movl	$777, %r8d
	leaq	.LC0(%rip), %rax
	movq	%rax, %rcx
	movl	$121, %edx
	movl	$0, %esi
	movl	$30, %edi
	call	aws_lc_0_38_0_ERR_put_error@PLT
	.loc 1 778 12
	movl	$0, %eax
	jmp	.L119
.L117:
	.loc 1 781 38
	movq	-328(%rbp), %rax
	addq	$8, %rax
	movq	%rax, -24(%rbp)
	.loc 1 785 3
	movq	-344(%rbp), %rdx
	leaq	-304(%rbp), %rcx
	movq	-24(%rbp), %rax
	movq	%rcx, %rsi
	movq	%rax, %rdi
	call	gcm_siv_keys
	.loc 1 787 3
	movq	-40(%rbp), %rdi
	leaq	-304(%rbp), %rax
	leaq	16(%rax), %r8
	movq	16(%rbp), %rcx
	movq	-368(%rbp), %rdx
	movq	-360(%rbp), %rsi
	movq	-336(%rbp), %rax
	movq	%r8, %r9
	movq	%rdi, %r8
	movq	%rax, %rdi
	call	gcm_siv_crypt
	.loc 1 790 3
	leaq	-304(%rbp), %r8
	movq	40(%rbp), %rdi
	movq	32(%rbp), %rcx
	movq	-368(%rbp), %rdx
	movq	-336(%rbp), %rsi
	leaq	-320(%rbp), %rax
	subq	$8, %rsp
	pushq	-344(%rbp)
	movq	%r8, %r9
	movq	%rdi, %r8
	movq	%rax, %rdi
	call	gcm_siv_polyval
	addq	$16, %rsp
	.loc 1 791 7
	movq	-40(%rbp), %r8
	.loc 1 791 3
	leaq	-304(%rbp), %rax
	leaq	16(%rax), %rdx
	leaq	-320(%rbp), %rcx
	leaq	-320(%rbp), %rax
	movq	%rcx, %rsi
	movq	%rax, %rdi
	call	*%r8
.LVL3:
	.loc 1 793 7
	movq	16(%rbp), %rcx
	leaq	-320(%rbp), %rax
	movl	$16, %edx
	movq	%rcx, %rsi
	movq	%rax, %rdi
	call	aws_lc_0_38_0_CRYPTO_memcmp@PLT
	.loc 1 793 6 discriminator 1
	testl	%eax, %eax
	je	.L118
	.loc 1 794 5
	movl	$794, %r8d
	leaq	.LC0(%rip), %rax
	movq	%rax, %rcx
	movl	$101, %edx
	movl	$0, %esi
	movl	$30, %edi
	call	aws_lc_0_38_0_ERR_put_error@PLT
	.loc 1 795 12
	movl	$0, %eax
	jmp	.L119
.L118:
	.loc 1 798 10
	movl	$1, %eax
.L119:
	.loc 1 799 1
	leave
	.cfi_def_cfa 7, 8
	ret
	.cfi_endproc
.LFE166:
	.size	aead_aes_gcm_siv_open_gather, .-aead_aes_gcm_siv_open_gather
	.section	.data.rel.ro.local.aead_aes_128_gcm_siv,"aw"
	.align 32
	.type	aead_aes_128_gcm_siv, @object
	.size	aead_aes_128_gcm_siv, 96
aead_aes_128_gcm_siv:
	.byte	16
	.byte	12
	.byte	16
	.byte	16
	.value	3
	.zero	2
	.long	0
	.zero	4
	.quad	aead_aes_gcm_siv_init
	.quad	0
	.quad	aead_aes_gcm_siv_cleanup
	.quad	0
	.quad	aead_aes_gcm_siv_seal_scatter
	.quad	aead_aes_gcm_siv_open_gather
	.quad	0
	.quad	0
	.quad	0
	.quad	0
	.section	.data.rel.ro.local.aead_aes_256_gcm_siv,"aw"
	.align 32
	.type	aead_aes_256_gcm_siv, @object
	.size	aead_aes_256_gcm_siv, 96
aead_aes_256_gcm_siv:
	.byte	32
	.byte	12
	.byte	16
	.byte	16
	.value	4
	.zero	2
	.long	0
	.zero	4
	.quad	aead_aes_gcm_siv_init
	.quad	0
	.quad	aead_aes_gcm_siv_cleanup
	.quad	0
	.quad	aead_aes_gcm_siv_seal_scatter
	.quad	aead_aes_gcm_siv_open_gather
	.quad	0
	.quad	0
	.quad	0
	.quad	0
	.section	.text.aws_lc_0_38_0_EVP_aead_aes_128_gcm_siv,"ax",@progbits
	.globl	aws_lc_0_38_0_EVP_aead_aes_128_gcm_siv
	.type	aws_lc_0_38_0_EVP_aead_aes_128_gcm_siv, @function
aws_lc_0_38_0_EVP_aead_aes_128_gcm_siv:
.LFB167:
	.loc 1 843 48
	.cfi_startproc
	pushq	%rbp
	.cfi_def_cfa_offset 16
	.cfi_offset 6, -16
	movq	%rsp, %rbp
	.cfi_def_cfa_register 6
	.loc 1 844 7
	call	CRYPTO_is_AVX_capable
	.loc 1 844 6 discriminator 1
	testl	%eax, %eax
	je	.L121
	.loc 1 844 34 discriminator 1
	call	CRYPTO_is_AESNI_capable
	.loc 1 844 31 discriminator 1
	testl	%eax, %eax
	je	.L121
	.loc 1 845 12
	leaq	aead_aes_128_gcm_siv_asm(%rip), %rax
	jmp	.L122
.L121:
	.loc 1 847 10
	leaq	aead_aes_128_gcm_siv(%rip), %rax
.L122:
	.loc 1 848 1
	popq	%rbp
	.cfi_def_cfa 7, 8
	ret
	.cfi_endproc
.LFE167:
	.size	aws_lc_0_38_0_EVP_aead_aes_128_gcm_siv, .-aws_lc_0_38_0_EVP_aead_aes_128_gcm_siv
	.section	.text.aws_lc_0_38_0_EVP_aead_aes_256_gcm_siv,"ax",@progbits
	.globl	aws_lc_0_38_0_EVP_aead_aes_256_gcm_siv
	.type	aws_lc_0_38_0_EVP_aead_aes_256_gcm_siv, @function
aws_lc_0_38_0_EVP_aead_aes_256_gcm_siv:
.LFB168:
	.loc 1 850 48
	.cfi_startproc
	pushq	%rbp
	.cfi_def_cfa_offset 16
	.cfi_offset 6, -16
	movq	%rsp, %rbp
	.cfi_def_cfa_register 6
	.loc 1 851 7
	call	CRYPTO_is_AVX_capable
	.loc 1 851 6 discriminator 1
	testl	%eax, %eax
	je	.L124
	.loc 1 851 34 discriminator 1
	call	CRYPTO_is_AESNI_capable
	.loc 1 851 31 discriminator 1
	testl	%eax, %eax
	je	.L124
	.loc 1 852 12
	leaq	aead_aes_256_gcm_siv_asm(%rip), %rax
	jmp	.L125
.L124:
	.loc 1 854 10
	leaq	aead_aes_256_gcm_siv(%rip), %rax
.L125:
	.loc 1 855 1
	popq	%rbp
	.cfi_def_cfa 7, 8
	ret
	.cfi_endproc
.LFE168:
	.size	aws_lc_0_38_0_EVP_aead_aes_256_gcm_siv, .-aws_lc_0_38_0_EVP_aead_aes_256_gcm_siv
	.section	.text.aws_lc_0_38_0_x86_64_assembly_implementation_FOR_TESTING,"ax",@progbits
	.globl	aws_lc_0_38_0_x86_64_assembly_implementation_FOR_TESTING
	.type	aws_lc_0_38_0_x86_64_assembly_implementation_FOR_TESTING, @function
aws_lc_0_38_0_x86_64_assembly_implementation_FOR_TESTING:
.LFB169:
	.loc 1 857 54
	.cfi_startproc
	pushq	%rbp
	.cfi_def_cfa_offset 16
	.cfi_offset 6, -16
	movq	%rsp, %rbp
	.cfi_def_cfa_register 6
	.loc 1 858 7
	call	CRYPTO_is_AVX_capable
	.loc 1 858 6 discriminator 1
	testl	%eax, %eax
	je	.L127
	.loc 1 858 34 discriminator 1
	call	CRYPTO_is_AESNI_capable
	.loc 1 858 31 discriminator 1
	testl	%eax, %eax
	je	.L127
	.loc 1 859 12
	movl	$1, %eax
	jmp	.L128
.L127:
	.loc 1 861 10
	movl	$0, %eax
.L128:
	.loc 1 862 1
	popq	%rbp
	.cfi_def_cfa 7, 8
	ret
	.cfi_endproc
.LFE169:
	.size	aws_lc_0_38_0_x86_64_assembly_implementation_FOR_TESTING, .-aws_lc_0_38_0_x86_64_assembly_implementation_FOR_TESTING
	.section	.rodata.__PRETTY_FUNCTION__.0,"a"
	.align 16
	.type	__PRETTY_FUNCTION__.0, @object
	.size	__PRETTY_FUNCTION__.0, 26
__PRETTY_FUNCTION__.0:
	.string	"aead_aes_gcm_siv_asm_init"
	.text
.Letext0:
	.file 4 "/usr/lib/gcc/x86_64-redhat-linux/14/include/stddef.h"
	.file 5 "/usr/include/bits/types.h"
	.file 6 "/usr/include/bits/stdint-uintn.h"
	.file 7 "/usr/include/stdint.h"
	.file 8 "/home/unnamed/.cargo/registry/src/index.crates.io-1949cf8c6b5b557f/aws-lc-sys-0.38.0/aws-lc/include/openssl/bytestring.h"
	.file 9 "/home/unnamed/.cargo/registry/src/index.crates.io-1949cf8c6b5b557f/aws-lc-sys-0.38.0/aws-lc/include/openssl/base.h"
	.file 10 "/home/unnamed/.cargo/registry/src/index.crates.io-1949cf8c6b5b557f/aws-lc-sys-0.38.0/aws-lc/crypto/cipher_extra/../fipsmodule/cipher/internal.h"
	.file 11 "/home/unnamed/.cargo/registry/src/index.crates.io-1949cf8c6b5b557f/aws-lc-sys-0.38.0/aws-lc/include/openssl/aead.h"
	.file 12 "/home/unnamed/.cargo/registry/src/index.crates.io-1949cf8c6b5b557f/aws-lc-sys-0.38.0/aws-lc/include/openssl/aes.h"
	.file 13 "/home/unnamed/.cargo/registry/src/index.crates.io-1949cf8c6b5b557f/aws-lc-sys-0.38.0/aws-lc/crypto/cipher_extra/../fipsmodule/cipher/../modes/internal.h"
	.file 14 "/home/unnamed/.cargo/registry/src/index.crates.io-1949cf8c6b5b557f/aws-lc-sys-0.38.0/aws-lc/include/openssl/mem.h"
	.file 15 "/usr/include/string.h"
	.file 16 "/usr/include/assert.h"
	.file 17 "/home/unnamed/.cargo/registry/src/index.crates.io-1949cf8c6b5b557f/aws-lc-sys-0.38.0/aws-lc/include/openssl/err.h"
	.section	.note.GNU-stack,"",@progbits
